Archive member included to satisfy reference by file (symbol)

/opt/wonderful/thirdparty/blocksds/external/nflib/lib/libnflib.a(nf_2d.c.o)
                              build/source/main.cpp.o (NF_Set2D)
/opt/wonderful/thirdparty/blocksds/external/nflib/lib/libnflib.a(nf_basic.c.o)
                              /opt/wonderful/thirdparty/blocksds/external/nflib/lib/libnflib.a(nf_2d.c.o) (NF_Error)
/opt/wonderful/thirdparty/blocksds/external/nflib/lib/libnflib.a(nf_sprite256.c.o)
                              build/source/main.cpp.o (NF_InitSpriteBuffers)
/opt/wonderful/thirdparty/blocksds/external/nflib/lib/libnflib.a(nf_text.c.o)
                              build/source/main.cpp.o (NF_InitTextSys)
/opt/wonderful/thirdparty/blocksds/external/nflib/lib/libnflib.a(nf_tiledbg.c.o)
                              build/source/main.cpp.o (NF_InitTiledBgBuffers)
/opt/wonderful/thirdparty/blocksds/core/libs/libnds/lib/libnds9.a(IntrWait.s.o)
                              build/source/main.cpp.o (swiWaitForVBlank)
/opt/wonderful/thirdparty/blocksds/core/libs/libnds/lib/libnds9.a(mpu_setup.s.o)
                              /opt/wonderful/thirdparty/blocksds/core/sys/crts/ds_arm9_crt0.o (__libnds_mpu_setup)
/opt/wonderful/thirdparty/blocksds/core/libs/libnds/lib/libnds9.a(cp15.s.o)
                              /opt/wonderful/thirdparty/blocksds/core/libs/libnds/lib/libnds9.a(mpu_setup.s.o) (CP15_CleanAndFlushDCache)
/opt/wonderful/thirdparty/blocksds/core/libs/libnds/lib/libnds9.a(dma.s.o)
                              /opt/wonderful/thirdparty/blocksds/external/nflib/lib/libnflib.a(nf_basic.c.o) (dmaSetParams)
/opt/wonderful/thirdparty/blocksds/core/libs/libnds/lib/libnds9.a(memcpy.s.o)
                              /opt/wonderful/thirdparty/blocksds/external/nflib/lib/libnflib.a(nf_basic.c.o) (memcpy)
/opt/wonderful/thirdparty/blocksds/core/libs/libnds/lib/libnds9.a(memset.s.o)
                              /opt/wonderful/thirdparty/blocksds/external/nflib/lib/libnflib.a(nf_sprite256.c.o) (memset)
/opt/wonderful/thirdparty/blocksds/core/libs/libnds/lib/libnds9.a(touch.c.o)
                              build/source/main.cpp.o (touchRead)
/opt/wonderful/thirdparty/blocksds/core/libs/libnds/lib/libnds9.a(sprite.c.o)
                              /opt/wonderful/thirdparty/blocksds/external/nflib/lib/libnflib.a(nf_sprite256.c.o) (oamInit)
/opt/wonderful/thirdparty/blocksds/core/libs/libnds/lib/libnds9.a(sprite_alloc.c.o)
                              /opt/wonderful/thirdparty/blocksds/core/libs/libnds/lib/libnds9.a(sprite.c.o) (oamAllocReset)
/opt/wonderful/thirdparty/blocksds/core/libs/libnds/lib/libnds9.a(video.c.o)
                              /opt/wonderful/thirdparty/blocksds/external/nflib/lib/libnflib.a(nf_basic.c.o) (setBrightness)
/opt/wonderful/thirdparty/blocksds/core/libs/libnds/lib/libnds9.a(securearea.c.o)
                              /opt/wonderful/thirdparty/blocksds/core/sys/crts/ds_arm9_crt0.o (__secure_area__)
/opt/wonderful/thirdparty/blocksds/core/libs/libnds/lib/libnds9.a(keys.c.o)
                              build/source/main.cpp.o (scanKeys)
/opt/wonderful/thirdparty/blocksds/core/libs/libnds/lib/libnds9.a(initSystem.c.o)
                              /opt/wonderful/thirdparty/blocksds/core/sys/crts/ds_arm9_crt0.o (initSystem)
/opt/wonderful/thirdparty/blocksds/core/libs/libnds/lib/libnds9.a(cache.c.o)
                              /opt/wonderful/thirdparty/blocksds/external/nflib/lib/libnflib.a(nf_basic.c.o) (CP15_CleanAndFlushDCacheRange)
/opt/wonderful/thirdparty/blocksds/core/libs/libnds/lib/libnds9.a(console.c.o)
                              build/source/main.cpp.o (consoleDemoInit)
/opt/wonderful/thirdparty/blocksds/core/libs/libnds/lib/libnds9.a(trig.c.o)
                              /opt/wonderful/thirdparty/blocksds/core/libs/libnds/lib/libnds9.a(sprite.c.o) (sinLerp)
/opt/wonderful/thirdparty/blocksds/core/libs/libnds/lib/libnds9.a(filesystem.c.o)
                              /opt/wonderful/thirdparty/blocksds/external/nflib/lib/libnflib.a(nf_basic.c.o) (access)
/opt/wonderful/thirdparty/blocksds/core/libs/libnds/lib/libnds9.a(fatfs.c.o)
                              /opt/wonderful/thirdparty/blocksds/core/libs/libnds/lib/libnds9.a(filesystem.c.o) (fatfs_error_to_posix)
/opt/wonderful/thirdparty/blocksds/core/libs/libnds/lib/libnds9.a(ff.c.o)
                              /opt/wonderful/thirdparty/blocksds/core/libs/libnds/lib/libnds9.a(fatfs.c.o) (f_mount)
/opt/wonderful/thirdparty/blocksds/core/libs/libnds/lib/libnds9.a(ffunicode.c.o)
                              /opt/wonderful/thirdparty/blocksds/core/libs/libnds/lib/libnds9.a(ff.c.o) (ff_uni2oem)
/opt/wonderful/thirdparty/blocksds/core/libs/libnds/lib/libnds9.a(ffsystem.c.o)
                              /opt/wonderful/thirdparty/blocksds/core/libs/libnds/lib/libnds9.a(ff.c.o) (ff_mutex_create)
/opt/wonderful/thirdparty/blocksds/core/libs/libnds/lib/libnds9.a(diskio.c.o)
                              /opt/wonderful/thirdparty/blocksds/core/libs/libnds/lib/libnds9.a(ff.c.o) (disk_status)
/opt/wonderful/thirdparty/blocksds/core/libs/libnds/lib/libnds9.a(cache.c.o)
                              /opt/wonderful/thirdparty/blocksds/core/libs/libnds/lib/libnds9.a(fatfs.c.o) (cache_init)
/opt/wonderful/thirdparty/blocksds/core/libs/libnds/lib/libnds9.a(nitrofs.c.o)
                              /opt/wonderful/thirdparty/blocksds/core/libs/libnds/lib/libnds9.a(filesystem.c.o) (nitrofs_use_for_path)
/opt/wonderful/thirdparty/blocksds/core/libs/libnds/lib/libnds9.a(crt0_argv.c.o)
                              /opt/wonderful/thirdparty/blocksds/core/sys/crts/ds_arm9_crt0.o (build_argv)
/opt/wonderful/thirdparty/blocksds/core/libs/libnds/lib/libnds9.a(chdir.c.o)
                              /opt/wonderful/thirdparty/blocksds/external/nflib/lib/libnflib.a(nf_basic.c.o) (chdir)
/opt/wonderful/thirdparty/blocksds/core/libs/libnds/lib/libnds9.a(iob.c.o)
                              /opt/wonderful/thirdparty/blocksds/core/libs/libnds/lib/libnds9.a(console.c.o) (stderr)
/opt/wonderful/thirdparty/blocksds/core/libs/libnds/lib/libnds9.a(dldi.c.o)
                              /opt/wonderful/thirdparty/blocksds/core/libs/libnds/lib/libnds9.a(diskio.c.o) (dldiGetInternal)
/opt/wonderful/thirdparty/blocksds/core/libs/libnds/lib/libnds9.a(sdmmc.twl.c.o)
                              /opt/wonderful/thirdparty/blocksds/core/libs/libnds/lib/libnds9.a(diskio.c.o) (sdmmc_GetDiskStatus)
/opt/wonderful/thirdparty/blocksds/core/libs/libnds/lib/libnds9.a(fifosystem.c.o)
                              /opt/wonderful/thirdparty/blocksds/core/libs/libnds/lib/libnds9.a(initSystem.c.o) (fifoSetValue32Handler)
/opt/wonderful/thirdparty/blocksds/core/libs/libnds/lib/libnds9.a(debugprint.c.o)
                              /opt/wonderful/thirdparty/blocksds/core/libs/libnds/lib/libnds9.a(console.c.o) (nocash_putc_buffered)
/opt/wonderful/thirdparty/blocksds/core/libs/libnds/lib/libnds9.a(interrupts.c.o)
                              /opt/wonderful/thirdparty/blocksds/core/libs/libnds/lib/libnds9.a(fifosystem.c.o) (irqSet)
/opt/wonderful/thirdparty/blocksds/core/libs/libnds/lib/libnds9.a(libnds_exit.c.o)
                              /opt/wonderful/thirdparty/blocksds/core/sys/crts/ds_arm9_crt0.o (__libnds_exit)
/opt/wonderful/thirdparty/blocksds/core/libs/libnds/lib/libnds9.a(card.c.o)
                              /opt/wonderful/thirdparty/blocksds/core/libs/libnds/lib/libnds9.a(nitrofs.c.o) (cardRead)
/opt/wonderful/thirdparty/blocksds/core/libs/libnds/lib/libnds9.a(sbrk.c.o)
                              /opt/wonderful/thirdparty/blocksds/core/sys/crts/ds_arm9_crt0.o (fake_heap_start)
/opt/wonderful/thirdparty/blocksds/core/libs/libnds/lib/libnds9.a(threads.c.o)
                              /opt/wonderful/thirdparty/blocksds/core/libs/libnds/lib/libnds9.a(fifosystem.c.o) (cothread_yield)
/opt/wonderful/thirdparty/blocksds/core/libs/libnds/lib/libnds9.a(default_font.bin.o)
                              /opt/wonderful/thirdparty/blocksds/core/libs/libnds/lib/libnds9.a(console.c.o) (default_font_bin)
/opt/wonderful/thirdparty/blocksds/core/libs/libnds/lib/libnds9.a(cpu_clock.s.o)
                              /opt/wonderful/thirdparty/blocksds/core/libs/libnds/lib/libnds9.a(initSystem.c.o) (setCpuClock)
/opt/wonderful/thirdparty/blocksds/core/libs/libnds/lib/libnds9.a(dldi_stub.s.o)
                              /opt/wonderful/thirdparty/blocksds/core/libs/libnds/lib/libnds9.a(dldi.c.o) (_io_dldi_stub)
/opt/wonderful/thirdparty/blocksds/core/libs/libnds/lib/libnds9.a(interruptDispatcher.s.o)
                              /opt/wonderful/thirdparty/blocksds/core/libs/libnds/lib/libnds9.a(interrupts.c.o) (IntrMain)
/opt/wonderful/thirdparty/blocksds/core/libs/libnds/lib/libnds9.a(debugprint.s.o)
                              /opt/wonderful/thirdparty/blocksds/core/libs/libnds/lib/libnds9.a(debugprint.c.o) (nocashWrite)
/opt/wonderful/thirdparty/blocksds/core/libs/libnds/lib/libnds9.a(coroutine.s.o)
                              /opt/wonderful/thirdparty/blocksds/core/libs/libnds/lib/libnds9.a(threads.c.o) (__ndsabi_coro_resume)
/opt/wonderful/thirdparty/blocksds/core/libs/libnds/lib/libnds9.a(aeabi_read_tp.s.o)
                              /opt/wonderful/thirdparty/blocksds/core/libs/libnds/lib/libnds9.a(filesystem.c.o) (__aeabi_read_tp)
/opt/wonderful/thirdparty/blocksds/core/libs/libnds/lib/libnds9.a(background.c.o)
                              /opt/wonderful/thirdparty/blocksds/core/libs/libnds/lib/libnds9.a(console.c.o) (bgState)
/opt/wonderful/thirdparty/blocksds/core/libs/libnds/lib/libnds9.a(system.c.o)
                              /opt/wonderful/thirdparty/blocksds/core/libs/libnds/lib/libnds9.a(initSystem.c.o) (systemValueHandler)
/opt/wonderful/thirdparty/blocksds/core/libs/libnds/lib/libnds9.a(keyboard.c.o)
                              /opt/wonderful/thirdparty/blocksds/core/libs/libnds/lib/libnds9.a(iob.c.o) (keyboardUpdate)
/opt/wonderful/thirdparty/blocksds/core/libs/libnds/lib/libnds9.a(decompress.c.o)
                              /opt/wonderful/thirdparty/blocksds/core/libs/libnds/lib/libnds9.a(keyboard.c.o) (decompress)
/opt/wonderful/thirdparty/blocksds/core/libs/libnds/lib/libnds9.a(coroutine.c.o)
                              /opt/wonderful/thirdparty/blocksds/core/libs/libnds/lib/libnds9.a(threads.c.o) (__ndsabi_coro_make_noctx)
/opt/wonderful/thirdparty/blocksds/core/libs/libnds/lib/libnds9.a(syscalls.c.o)
                              /opt/wonderful/thirdparty/blocksds/core/libs/libnds/lib/libnds9.a(decompress.c.o) (swiDecompressLZSSVram)
/opt/wonderful/thirdparty/blocksds/core/libs/libnds/lib/libnds9.a(keyboardGfx.png.o)
                              /opt/wonderful/thirdparty/blocksds/core/libs/libnds/lib/libnds9.a(keyboard.c.o) (keyboardGfxPal)
/opt/wonderful/toolchain/gcc-arm-none-eabi/lib/gcc/arm-none-eabi/13.2.0/../../../../arm-none-eabi/lib/libc.a(strcmp.S.o)
                              /opt/wonderful/thirdparty/blocksds/external/nflib/lib/libnflib.a(nf_basic.c.o) (strcmp)
/opt/wonderful/toolchain/gcc-arm-none-eabi/lib/gcc/arm-none-eabi/13.2.0/../../../../arm-none-eabi/lib/libc.a(strlen.S.o)
                              /opt/wonderful/thirdparty/blocksds/external/nflib/lib/libnflib.a(nf_text.c.o) (strlen)
/opt/wonderful/toolchain/gcc-arm-none-eabi/lib/gcc/arm-none-eabi/13.2.0/../../../../arm-none-eabi/lib/libc.a(malloc-calloc.c.o)
                              /opt/wonderful/thirdparty/blocksds/external/nflib/lib/libnflib.a(nf_basic.c.o) (calloc)
/opt/wonderful/toolchain/gcc-arm-none-eabi/lib/gcc/arm-none-eabi/13.2.0/../../../../arm-none-eabi/lib/libc.a(malloc-free.c.o)
                              /opt/wonderful/thirdparty/blocksds/external/nflib/lib/libnflib.a(nf_sprite256.c.o) (free)
/opt/wonderful/toolchain/gcc-arm-none-eabi/lib/gcc/arm-none-eabi/13.2.0/../../../../arm-none-eabi/lib/libc.a(malloc-malloc.c.o)
                              /opt/wonderful/thirdparty/blocksds/external/nflib/lib/libnflib.a(nf_basic.c.o) (malloc)
/opt/wonderful/toolchain/gcc-arm-none-eabi/lib/gcc/arm-none-eabi/13.2.0/../../../../arm-none-eabi/lib/libc.a(malloc-memalign.c.o)
                              /opt/wonderful/thirdparty/blocksds/core/libs/libnds/lib/libnds9.a(threads.c.o) (memalign)
/opt/wonderful/toolchain/gcc-arm-none-eabi/lib/gcc/arm-none-eabi/13.2.0/../../../../arm-none-eabi/lib/libc.a(malloc-realloc.c.o)
                              /opt/wonderful/thirdparty/blocksds/core/libs/libnds/lib/libnds9.a(sprite_alloc.c.o) (realloc)
/opt/wonderful/toolchain/gcc-arm-none-eabi/lib/gcc/arm-none-eabi/13.2.0/../../../../arm-none-eabi/lib/libc.a(libc_errno_errno.c.o)
                              /opt/wonderful/thirdparty/blocksds/core/libs/libnds/lib/libnds9.a(filesystem.c.o) (errno)
/opt/wonderful/toolchain/gcc-arm-none-eabi/lib/gcc/arm-none-eabi/13.2.0/../../../../arm-none-eabi/lib/libc.a(libc_misc_init.c.o)
                              /opt/wonderful/thirdparty/blocksds/core/sys/crts/ds_arm9_crt0.o (__libc_init_array)
/opt/wonderful/toolchain/gcc-arm-none-eabi/lib/gcc/arm-none-eabi/13.2.0/../../../../arm-none-eabi/lib/libc.a(libc_misc_lock.c.o)
                              /opt/wonderful/toolchain/gcc-arm-none-eabi/lib/gcc/arm-none-eabi/13.2.0/../../../../arm-none-eabi/lib/libc.a(malloc-free.c.o) (__retarget_lock_acquire_recursive)
/opt/wonderful/toolchain/gcc-arm-none-eabi/lib/gcc/arm-none-eabi/13.2.0/../../../../arm-none-eabi/lib/libc.a(libc_search_bsearch.c.o)
                              /opt/wonderful/thirdparty/blocksds/core/libs/libnds/lib/libnds9.a(trig.c.o) (bsearch)
/opt/wonderful/toolchain/gcc-arm-none-eabi/lib/gcc/arm-none-eabi/13.2.0/../../../../arm-none-eabi/lib/libc.a(libc_stdlib_pico-exit.c.o)
                              /opt/wonderful/thirdparty/blocksds/core/libs/libnds/lib/libnds9.a(fifosystem.c.o) (exit)
/opt/wonderful/toolchain/gcc-arm-none-eabi/lib/gcc/arm-none-eabi/13.2.0/../../../../arm-none-eabi/lib/libc.a(libc_string_memcmp.c.o)
                              /opt/wonderful/thirdparty/blocksds/core/libs/libnds/lib/libnds9.a(ff.c.o) (memcmp)
/opt/wonderful/toolchain/gcc-arm-none-eabi/lib/gcc/arm-none-eabi/13.2.0/../../../../arm-none-eabi/lib/libc.a(libc_string_strchr.c.o)
                              /opt/wonderful/thirdparty/blocksds/core/libs/libnds/lib/libnds9.a(ff.c.o) (strchr)
/opt/wonderful/toolchain/gcc-arm-none-eabi/lib/gcc/arm-none-eabi/13.2.0/../../../../arm-none-eabi/lib/libc.a(libc_string_strdup.c.o)
                              /opt/wonderful/thirdparty/blocksds/core/libs/libnds/lib/libnds9.a(fatfs.c.o) (strdup)
/opt/wonderful/toolchain/gcc-arm-none-eabi/lib/gcc/arm-none-eabi/13.2.0/../../../../arm-none-eabi/lib/libc.a(libc_string_strncmp.c.o)
                              /opt/wonderful/thirdparty/blocksds/external/nflib/lib/libnflib.a(nf_basic.c.o) (strncmp)
/opt/wonderful/toolchain/gcc-arm-none-eabi/lib/gcc/arm-none-eabi/13.2.0/../../../../arm-none-eabi/lib/libc.a(libc_string_strncpy.c.o)
                              /opt/wonderful/thirdparty/blocksds/core/libs/libnds/lib/libnds9.a(nitrofs.c.o) (strncpy)
/opt/wonderful/toolchain/gcc-arm-none-eabi/lib/gcc/arm-none-eabi/13.2.0/../../../../arm-none-eabi/lib/libc.a(libc_string_strstr.c.o)
                              /opt/wonderful/thirdparty/blocksds/core/libs/libnds/lib/libnds9.a(nitrofs.c.o) (strstr)
/opt/wonderful/toolchain/gcc-arm-none-eabi/lib/gcc/arm-none-eabi/13.2.0/../../../../arm-none-eabi/lib/libc.a(libc_time_lcltime.c.o)
                              /opt/wonderful/thirdparty/blocksds/core/libs/libnds/lib/libnds9.a(diskio.c.o) (localtime)
/opt/wonderful/toolchain/gcc-arm-none-eabi/lib/gcc/arm-none-eabi/13.2.0/../../../../arm-none-eabi/lib/libc.a(libc_time_lcltime_r.c.o)
                              /opt/wonderful/toolchain/gcc-arm-none-eabi/lib/gcc/arm-none-eabi/13.2.0/../../../../arm-none-eabi/lib/libc.a(libc_time_lcltime.c.o) (localtime_r)
/opt/wonderful/toolchain/gcc-arm-none-eabi/lib/gcc/arm-none-eabi/13.2.0/../../../../arm-none-eabi/lib/libc.a(libc_time_lcltime_buf.c.o)
                              /opt/wonderful/toolchain/gcc-arm-none-eabi/lib/gcc/arm-none-eabi/13.2.0/../../../../arm-none-eabi/lib/libc.a(libc_time_lcltime.c.o) (_localtime_buf)
/opt/wonderful/toolchain/gcc-arm-none-eabi/lib/gcc/arm-none-eabi/13.2.0/../../../../arm-none-eabi/lib/libc.a(libc_time_mktime.c.o)
                              /opt/wonderful/thirdparty/blocksds/core/libs/libnds/lib/libnds9.a(filesystem.c.o) (mktime)
/opt/wonderful/toolchain/gcc-arm-none-eabi/lib/gcc/arm-none-eabi/13.2.0/../../../../arm-none-eabi/lib/libc.a(libc_time_month_lengths.c.o)
                              /opt/wonderful/toolchain/gcc-arm-none-eabi/lib/gcc/arm-none-eabi/13.2.0/../../../../arm-none-eabi/lib/libc.a(libc_time_lcltime_r.c.o) (__month_lengths)
/opt/wonderful/toolchain/gcc-arm-none-eabi/lib/gcc/arm-none-eabi/13.2.0/../../../../arm-none-eabi/lib/libc.a(libc_time_time.c.o)
                              /opt/wonderful/thirdparty/blocksds/core/libs/libnds/lib/libnds9.a(diskio.c.o) (time)
/opt/wonderful/toolchain/gcc-arm-none-eabi/lib/gcc/arm-none-eabi/13.2.0/../../../../arm-none-eabi/lib/libc.a(libc_time_tzcalc_limits.c.o)
                              /opt/wonderful/toolchain/gcc-arm-none-eabi/lib/gcc/arm-none-eabi/13.2.0/../../../../arm-none-eabi/lib/libc.a(libc_time_lcltime_r.c.o) (__tzcalc_limits)
/opt/wonderful/toolchain/gcc-arm-none-eabi/lib/gcc/arm-none-eabi/13.2.0/../../../../arm-none-eabi/lib/libc.a(libc_time_tzset.c.o)
                              /opt/wonderful/toolchain/gcc-arm-none-eabi/lib/gcc/arm-none-eabi/13.2.0/../../../../arm-none-eabi/lib/libc.a(libc_time_lcltime_r.c.o) (_tzset_unlocked)
/opt/wonderful/toolchain/gcc-arm-none-eabi/lib/gcc/arm-none-eabi/13.2.0/../../../../arm-none-eabi/lib/libc.a(libc_time_tzvars.c.o)
                              /opt/wonderful/toolchain/gcc-arm-none-eabi/lib/gcc/arm-none-eabi/13.2.0/../../../../arm-none-eabi/lib/libc.a(libc_time_tzset.c.o) (_timezone)
/opt/wonderful/toolchain/gcc-arm-none-eabi/lib/gcc/arm-none-eabi/13.2.0/../../../../arm-none-eabi/lib/libc.a(libc_tinystdio_fclose.c.o)
                              /opt/wonderful/thirdparty/blocksds/external/nflib/lib/libnflib.a(nf_basic.c.o) (fclose)
/opt/wonderful/toolchain/gcc-arm-none-eabi/lib/gcc/arm-none-eabi/13.2.0/../../../../arm-none-eabi/lib/libc.a(libc_tinystdio_fflush.c.o)
                              /opt/wonderful/thirdparty/blocksds/core/libs/libnds/lib/libnds9.a(console.c.o) (fflush)
/opt/wonderful/toolchain/gcc-arm-none-eabi/lib/gcc/arm-none-eabi/13.2.0/../../../../arm-none-eabi/lib/libc.a(libc_tinystdio_fileno.c.o)
                              /opt/wonderful/thirdparty/blocksds/core/libs/libnds/lib/libnds9.a(nitrofs.c.o) (fileno)
/opt/wonderful/toolchain/gcc-arm-none-eabi/lib/gcc/arm-none-eabi/13.2.0/../../../../arm-none-eabi/lib/libc.a(libc_tinystdio_fread.c.o)
                              /opt/wonderful/thirdparty/blocksds/external/nflib/lib/libnflib.a(nf_basic.c.o) (fread)
/opt/wonderful/toolchain/gcc-arm-none-eabi/lib/gcc/arm-none-eabi/13.2.0/../../../../arm-none-eabi/lib/libc.a(libc_tinystdio_fseek.c.o)
                              /opt/wonderful/thirdparty/blocksds/external/nflib/lib/libnflib.a(nf_basic.c.o) (fseek)
/opt/wonderful/toolchain/gcc-arm-none-eabi/lib/gcc/arm-none-eabi/13.2.0/../../../../arm-none-eabi/lib/libc.a(libc_tinystdio_ftell.c.o)
                              /opt/wonderful/thirdparty/blocksds/external/nflib/lib/libnflib.a(nf_basic.c.o) (ftell)
/opt/wonderful/toolchain/gcc-arm-none-eabi/lib/gcc/arm-none-eabi/13.2.0/../../../../arm-none-eabi/lib/libc.a(libc_tinystdio_printf.c.o)
                              /opt/wonderful/thirdparty/blocksds/external/nflib/lib/libnflib.a(nf_basic.c.o) (printf)
/opt/wonderful/toolchain/gcc-arm-none-eabi/lib/gcc/arm-none-eabi/13.2.0/../../../../arm-none-eabi/lib/libc.a(libc_tinystdio_puts.c.o)
                              build/source/main.cpp.o (puts)
/opt/wonderful/toolchain/gcc-arm-none-eabi/lib/gcc/arm-none-eabi/13.2.0/../../../../arm-none-eabi/lib/libc.a(libc_tinystdio_rewind.c.o)
                              /opt/wonderful/thirdparty/blocksds/external/nflib/lib/libnflib.a(nf_basic.c.o) (rewind)
/opt/wonderful/toolchain/gcc-arm-none-eabi/lib/gcc/arm-none-eabi/13.2.0/../../../../arm-none-eabi/lib/libc.a(libc_tinystdio_setvbuf.c.o)
                              /opt/wonderful/thirdparty/blocksds/core/libs/libnds/lib/libnds9.a(console.c.o) (setvbuf)
/opt/wonderful/toolchain/gcc-arm-none-eabi/lib/gcc/arm-none-eabi/13.2.0/../../../../arm-none-eabi/lib/libc.a(libc_tinystdio_snprintf.c.o)
                              /opt/wonderful/thirdparty/blocksds/external/nflib/lib/libnflib.a(nf_2d.c.o) (snprintf)
/opt/wonderful/toolchain/gcc-arm-none-eabi/lib/gcc/arm-none-eabi/13.2.0/../../../../arm-none-eabi/lib/libc.a(libc_tinystdio_sprintf.c.o)
                              build/source/main.cpp.o (sprintf)
/opt/wonderful/toolchain/gcc-arm-none-eabi/lib/gcc/arm-none-eabi/13.2.0/../../../../arm-none-eabi/lib/libc.a(libc_tinystdio_sscanf.c.o)
                              /opt/wonderful/thirdparty/blocksds/core/libs/libnds/lib/libnds9.a(console.c.o) (sscanf)
/opt/wonderful/toolchain/gcc-arm-none-eabi/lib/gcc/arm-none-eabi/13.2.0/../../../../arm-none-eabi/lib/libc.a(libc_tinystdio_strtoul.c.o)
                              /opt/wonderful/toolchain/gcc-arm-none-eabi/lib/gcc/arm-none-eabi/13.2.0/../../../../arm-none-eabi/lib/libc.a(libc_time_tzset.c.o) (strtoul)
/opt/wonderful/toolchain/gcc-arm-none-eabi/lib/gcc/arm-none-eabi/13.2.0/../../../../arm-none-eabi/lib/libc.a(libc_tinystdio_vfprintf.c.o)
                              /opt/wonderful/toolchain/gcc-arm-none-eabi/lib/gcc/arm-none-eabi/13.2.0/../../../../arm-none-eabi/lib/libc.a(libc_tinystdio_printf.c.o) (vfprintf)
/opt/wonderful/toolchain/gcc-arm-none-eabi/lib/gcc/arm-none-eabi/13.2.0/../../../../arm-none-eabi/lib/libc.a(libc_tinystdio_vfscanf.c.o)
                              /opt/wonderful/toolchain/gcc-arm-none-eabi/lib/gcc/arm-none-eabi/13.2.0/../../../../arm-none-eabi/lib/libc.a(libc_tinystdio_sscanf.c.o) (vfscanf)
/opt/wonderful/toolchain/gcc-arm-none-eabi/lib/gcc/arm-none-eabi/13.2.0/../../../../arm-none-eabi/lib/libc.a(libc_tinystdio_dtoa_ryu.c.o)
                              /opt/wonderful/toolchain/gcc-arm-none-eabi/lib/gcc/arm-none-eabi/13.2.0/../../../../arm-none-eabi/lib/libc.a(libc_tinystdio_vfprintf.c.o) (__dtoa_engine)
/opt/wonderful/toolchain/gcc-arm-none-eabi/lib/gcc/arm-none-eabi/13.2.0/../../../../arm-none-eabi/lib/libc.a(libc_tinystdio_ryu_table.c.o)
                              /opt/wonderful/toolchain/gcc-arm-none-eabi/lib/gcc/arm-none-eabi/13.2.0/../../../../arm-none-eabi/lib/libc.a(libc_tinystdio_dtoa_ryu.c.o) (__pow5Factor)
/opt/wonderful/toolchain/gcc-arm-none-eabi/lib/gcc/arm-none-eabi/13.2.0/../../../../arm-none-eabi/lib/libc.a(libc_tinystdio_atod_ryu.c.o)
                              /opt/wonderful/toolchain/gcc-arm-none-eabi/lib/gcc/arm-none-eabi/13.2.0/../../../../arm-none-eabi/lib/libc.a(libc_tinystdio_vfscanf.c.o) (__atod_engine)
/opt/wonderful/toolchain/gcc-arm-none-eabi/lib/gcc/arm-none-eabi/13.2.0/../../../../arm-none-eabi/lib/libc.a(libc_tinystdio_atof_ryu.c.o)
                              /opt/wonderful/toolchain/gcc-arm-none-eabi/lib/gcc/arm-none-eabi/13.2.0/../../../../arm-none-eabi/lib/libc.a(libc_tinystdio_vfscanf.c.o) (__atof_engine)
/opt/wonderful/toolchain/gcc-arm-none-eabi/lib/gcc/arm-none-eabi/13.2.0/../../../../arm-none-eabi/lib/libc.a(libc_tinystdio_ryu_log2pow5.c.o)
                              /opt/wonderful/toolchain/gcc-arm-none-eabi/lib/gcc/arm-none-eabi/13.2.0/../../../../arm-none-eabi/lib/libc.a(libc_tinystdio_atod_ryu.c.o) (__log2pow5)
/opt/wonderful/toolchain/gcc-arm-none-eabi/lib/gcc/arm-none-eabi/13.2.0/../../../../arm-none-eabi/lib/libc.a(libc_tinystdio_ryu_log10.c.o)
                              /opt/wonderful/toolchain/gcc-arm-none-eabi/lib/gcc/arm-none-eabi/13.2.0/../../../../arm-none-eabi/lib/libc.a(libc_tinystdio_dtoa_ryu.c.o) (__log10Pow2)
/opt/wonderful/toolchain/gcc-arm-none-eabi/lib/gcc/arm-none-eabi/13.2.0/../../../../arm-none-eabi/lib/libc.a(libc_tinystdio_ryu_pow5bits.c.o)
                              /opt/wonderful/toolchain/gcc-arm-none-eabi/lib/gcc/arm-none-eabi/13.2.0/../../../../arm-none-eabi/lib/libc.a(libc_tinystdio_dtoa_ryu.c.o) (__pow5bits)
/opt/wonderful/toolchain/gcc-arm-none-eabi/lib/gcc/arm-none-eabi/13.2.0/../../../../arm-none-eabi/lib/libc.a(libc_tinystdio_ryu_umul128.c.o)
                              /opt/wonderful/toolchain/gcc-arm-none-eabi/lib/gcc/arm-none-eabi/13.2.0/../../../../arm-none-eabi/lib/libc.a(libc_tinystdio_dtoa_ryu.c.o) (__umul128)
/opt/wonderful/toolchain/gcc-arm-none-eabi/lib/gcc/arm-none-eabi/13.2.0/../../../../arm-none-eabi/lib/libc.a(libc_tinystdio_ryu_divpow2.c.o)
                              /opt/wonderful/toolchain/gcc-arm-none-eabi/lib/gcc/arm-none-eabi/13.2.0/../../../../arm-none-eabi/lib/libc.a(libc_tinystdio_atof_ryu.c.o) (__mulPow5InvDivPow2)
/opt/wonderful/toolchain/gcc-arm-none-eabi/lib/gcc/arm-none-eabi/13.2.0/../../../../arm-none-eabi/lib/libc.a(libc_tinystdio_exchange.c.o)
                              /opt/wonderful/toolchain/gcc-arm-none-eabi/lib/gcc/arm-none-eabi/13.2.0/../../../../arm-none-eabi/lib/libc.a(libc_tinystdio_fread.c.o) (__atomic_exchange_ungetc)
/opt/wonderful/toolchain/gcc-arm-none-eabi/lib/gcc/arm-none-eabi/13.2.0/../../../../arm-none-eabi/lib/libc.a(libc_tinystdio_fopen.c.o)
                              /opt/wonderful/thirdparty/blocksds/external/nflib/lib/libnflib.a(nf_basic.c.o) (fopen)
/opt/wonderful/toolchain/gcc-arm-none-eabi/lib/gcc/arm-none-eabi/13.2.0/../../../../arm-none-eabi/lib/libc.a(libc_tinystdio_fdopen.c.o)
                              /opt/wonderful/toolchain/gcc-arm-none-eabi/lib/gcc/arm-none-eabi/13.2.0/../../../../arm-none-eabi/lib/libc.a(libc_tinystdio_fopen.c.o) (fdopen)
/opt/wonderful/toolchain/gcc-arm-none-eabi/lib/gcc/arm-none-eabi/13.2.0/../../../../arm-none-eabi/lib/libc.a(memmove.c.o)
                              /opt/wonderful/toolchain/gcc-arm-none-eabi/lib/gcc/arm-none-eabi/13.2.0/../../../../arm-none-eabi/lib/libc.a(malloc-realloc.c.o) (memmove)
/opt/wonderful/toolchain/gcc-arm-none-eabi/lib/gcc/arm-none-eabi/13.2.0/../../../../arm-none-eabi/lib/libc.a(libc_misc_fini.c.o)
                              /opt/wonderful/toolchain/gcc-arm-none-eabi/lib/gcc/arm-none-eabi/13.2.0/../../../../arm-none-eabi/lib/libc.a(libc_stdlib_pico-exit.c.o) (__libc_fini_array)
/opt/wonderful/toolchain/gcc-arm-none-eabi/lib/gcc/arm-none-eabi/13.2.0/../../../../arm-none-eabi/lib/libc.a(libc_stdlib_div.c.o)
                              /opt/wonderful/toolchain/gcc-arm-none-eabi/lib/gcc/arm-none-eabi/13.2.0/../../../../arm-none-eabi/lib/libc.a(libc_time_mktime.c.o) (div)
/opt/wonderful/toolchain/gcc-arm-none-eabi/lib/gcc/arm-none-eabi/13.2.0/../../../../arm-none-eabi/lib/libc.a(libc_stdlib_getenv.c.o)
                              /opt/wonderful/toolchain/gcc-arm-none-eabi/lib/gcc/arm-none-eabi/13.2.0/../../../../arm-none-eabi/lib/libc.a(libc_time_tzset.c.o) (getenv)
/opt/wonderful/toolchain/gcc-arm-none-eabi/lib/gcc/arm-none-eabi/13.2.0/../../../../arm-none-eabi/lib/libc.a(libc_stdlib_getenv_r.c.o)
                              /opt/wonderful/toolchain/gcc-arm-none-eabi/lib/gcc/arm-none-eabi/13.2.0/../../../../arm-none-eabi/lib/libc.a(libc_stdlib_getenv.c.o) (_findenv)
/opt/wonderful/toolchain/gcc-arm-none-eabi/lib/gcc/arm-none-eabi/13.2.0/../../../../arm-none-eabi/lib/libc.a(libc_string_strnlen.c.o)
                              /opt/wonderful/toolchain/gcc-arm-none-eabi/lib/gcc/arm-none-eabi/13.2.0/../../../../arm-none-eabi/lib/libc.a(libc_tinystdio_vfprintf.c.o) (strnlen)
/opt/wonderful/toolchain/gcc-arm-none-eabi/lib/gcc/arm-none-eabi/13.2.0/../../../../arm-none-eabi/lib/libc.a(libc_time_gettzinfo.c.o)
                              /opt/wonderful/toolchain/gcc-arm-none-eabi/lib/gcc/arm-none-eabi/13.2.0/../../../../arm-none-eabi/lib/libc.a(libc_time_lcltime_r.c.o) (__gettzinfo)
/opt/wonderful/toolchain/gcc-arm-none-eabi/lib/gcc/arm-none-eabi/13.2.0/../../../../arm-none-eabi/lib/libc.a(libc_time_gmtime_r.c.o)
                              /opt/wonderful/toolchain/gcc-arm-none-eabi/lib/gcc/arm-none-eabi/13.2.0/../../../../arm-none-eabi/lib/libc.a(libc_time_lcltime_r.c.o) (gmtime_r)
/opt/wonderful/toolchain/gcc-arm-none-eabi/lib/gcc/arm-none-eabi/13.2.0/../../../../arm-none-eabi/lib/libc.a(libc_tinystdio_bufio.c.o)
                              /opt/wonderful/toolchain/gcc-arm-none-eabi/lib/gcc/arm-none-eabi/13.2.0/../../../../arm-none-eabi/lib/libc.a(libc_tinystdio_fdopen.c.o) (__bufio_flush)
/opt/wonderful/toolchain/gcc-arm-none-eabi/lib/gcc/arm-none-eabi/13.2.0/../../../../arm-none-eabi/lib/libc.a(libc_tinystdio_dtox_engine.c.o)
                              /opt/wonderful/toolchain/gcc-arm-none-eabi/lib/gcc/arm-none-eabi/13.2.0/../../../../arm-none-eabi/lib/libc.a(libc_tinystdio_vfprintf.c.o) (__dtox_engine)
/opt/wonderful/toolchain/gcc-arm-none-eabi/lib/gcc/arm-none-eabi/13.2.0/../../../../arm-none-eabi/lib/libc.a(libc_tinystdio_fgetc.c.o)
                              /opt/wonderful/toolchain/gcc-arm-none-eabi/lib/gcc/arm-none-eabi/13.2.0/../../../../arm-none-eabi/lib/libc.a(libc_tinystdio_fread.c.o) (fgetc)
/opt/wonderful/toolchain/gcc-arm-none-eabi/lib/gcc/arm-none-eabi/13.2.0/../../../../arm-none-eabi/lib/libc.a(libc_tinystdio_filestrget.c.o)
                              /opt/wonderful/toolchain/gcc-arm-none-eabi/lib/gcc/arm-none-eabi/13.2.0/../../../../arm-none-eabi/lib/libc.a(libc_tinystdio_sscanf.c.o) (__file_str_get)
/opt/wonderful/toolchain/gcc-arm-none-eabi/lib/gcc/arm-none-eabi/13.2.0/../../../../arm-none-eabi/lib/libc.a(libc_tinystdio_filestrput.c.o)
                              /opt/wonderful/toolchain/gcc-arm-none-eabi/lib/gcc/arm-none-eabi/13.2.0/../../../../arm-none-eabi/lib/libc.a(libc_tinystdio_snprintf.c.o) (__file_str_put)
/opt/wonderful/toolchain/gcc-arm-none-eabi/lib/gcc/arm-none-eabi/13.2.0/../../../../arm-none-eabi/lib/libc.a(libc_tinystdio_fseeko.c.o)
                              /opt/wonderful/toolchain/gcc-arm-none-eabi/lib/gcc/arm-none-eabi/13.2.0/../../../../arm-none-eabi/lib/libc.a(libc_tinystdio_fdopen.c.o) (fseeko)
/opt/wonderful/toolchain/gcc-arm-none-eabi/lib/gcc/arm-none-eabi/13.2.0/../../../../arm-none-eabi/lib/libc.a(libc_tinystdio_sflags.c.o)
                              /opt/wonderful/toolchain/gcc-arm-none-eabi/lib/gcc/arm-none-eabi/13.2.0/../../../../arm-none-eabi/lib/libc.a(libc_tinystdio_fopen.c.o) (__posix_sflags)
/opt/wonderful/toolchain/gcc-arm-none-eabi/lib/gcc/arm-none-eabi/13.2.0/../../../../arm-none-eabi/lib/libc.a(libc_tinystdio_ungetc.c.o)
                              /opt/wonderful/toolchain/gcc-arm-none-eabi/lib/gcc/arm-none-eabi/13.2.0/../../../../arm-none-eabi/lib/libc.a(libc_tinystdio_vfscanf.c.o) (ungetc)
/opt/wonderful/toolchain/gcc-arm-none-eabi/lib/gcc/arm-none-eabi/13.2.0/../../../../arm-none-eabi/lib/libc.a(libc_tinystdio_compare_exchange.c.o)
                              /opt/wonderful/toolchain/gcc-arm-none-eabi/lib/gcc/arm-none-eabi/13.2.0/../../../../arm-none-eabi/lib/libc.a(libc_tinystdio_ungetc.c.o) (__atomic_compare_exchange_ungetc)
/opt/wonderful/toolchain/gcc-arm-none-eabi/lib/gcc/arm-none-eabi/13.2.0/../../../../arm-none-eabi/lib/libc.a(libc_stdlib_environ.c.o)
                              /opt/wonderful/toolchain/gcc-arm-none-eabi/lib/gcc/arm-none-eabi/13.2.0/../../../../arm-none-eabi/lib/libc.a(libc_stdlib_getenv_r.c.o) (environ)
/opt/wonderful/toolchain/gcc-arm-none-eabi/lib/gcc/arm-none-eabi/13.2.0/thumb/libgcc.a(_thumb1_case_uqi.o)
                              /opt/wonderful/toolchain/gcc-arm-none-eabi/lib/gcc/arm-none-eabi/13.2.0/../../../../arm-none-eabi/lib/libc.a(libc_tinystdio_vfprintf.c.o) (__gnu_thumb1_case_uqi)
/opt/wonderful/toolchain/gcc-arm-none-eabi/lib/gcc/arm-none-eabi/13.2.0/thumb/libgcc.a(_udivsi3.o)
                              /opt/wonderful/thirdparty/blocksds/external/nflib/lib/libnflib.a(nf_sprite256.c.o) (__aeabi_uidiv)
/opt/wonderful/toolchain/gcc-arm-none-eabi/lib/gcc/arm-none-eabi/13.2.0/thumb/libgcc.a(_divsi3.o)
                              /opt/wonderful/thirdparty/blocksds/core/libs/libnds/lib/libnds9.a(keyboard.c.o) (__aeabi_idiv)
/opt/wonderful/toolchain/gcc-arm-none-eabi/lib/gcc/arm-none-eabi/13.2.0/thumb/libgcc.a(_dvmd_tls.o)
                              /opt/wonderful/toolchain/gcc-arm-none-eabi/lib/gcc/arm-none-eabi/13.2.0/thumb/libgcc.a(_udivsi3.o) (__aeabi_idiv0)
/opt/wonderful/toolchain/gcc-arm-none-eabi/lib/gcc/arm-none-eabi/13.2.0/thumb/libgcc.a(_lshrdi3.o)
                              /opt/wonderful/toolchain/gcc-arm-none-eabi/lib/gcc/arm-none-eabi/13.2.0/../../../../arm-none-eabi/lib/libc.a(libc_tinystdio_atod_ryu.c.o) (__aeabi_llsr)
/opt/wonderful/toolchain/gcc-arm-none-eabi/lib/gcc/arm-none-eabi/13.2.0/thumb/libgcc.a(_ashrdi3.o)
                              /opt/wonderful/toolchain/gcc-arm-none-eabi/lib/gcc/arm-none-eabi/13.2.0/../../../../arm-none-eabi/lib/libc.a(libc_tinystdio_dtox_engine.c.o) (__aeabi_lasr)
/opt/wonderful/toolchain/gcc-arm-none-eabi/lib/gcc/arm-none-eabi/13.2.0/thumb/libgcc.a(_ashldi3.o)
                              /opt/wonderful/toolchain/gcc-arm-none-eabi/lib/gcc/arm-none-eabi/13.2.0/../../../../arm-none-eabi/lib/libc.a(libc_tinystdio_vfscanf.c.o) (__aeabi_llsl)
/opt/wonderful/toolchain/gcc-arm-none-eabi/lib/gcc/arm-none-eabi/13.2.0/thumb/libgcc.a(_arm_addsubdf3.o)
                              /opt/wonderful/toolchain/gcc-arm-none-eabi/lib/gcc/arm-none-eabi/13.2.0/../../../../arm-none-eabi/lib/libc.a(libc_tinystdio_vfscanf.c.o) (__aeabi_f2d)
/opt/wonderful/toolchain/gcc-arm-none-eabi/lib/gcc/arm-none-eabi/13.2.0/thumb/libgcc.a(_arm_truncdfsf2.o)
                              /opt/wonderful/toolchain/gcc-arm-none-eabi/lib/gcc/arm-none-eabi/13.2.0/../../../../arm-none-eabi/lib/libc.a(libc_tinystdio_vfscanf.c.o) (__aeabi_d2f)
/opt/wonderful/toolchain/gcc-arm-none-eabi/lib/gcc/arm-none-eabi/13.2.0/thumb/libgcc.a(_clzsi2.o)
                              /opt/wonderful/thirdparty/blocksds/core/libs/libnds/lib/libnds9.a(ff.c.o) (__clzsi2)
/opt/wonderful/toolchain/gcc-arm-none-eabi/lib/gcc/arm-none-eabi/13.2.0/thumb/libgcc.a(_clzdi2.o)
                              /opt/wonderful/toolchain/gcc-arm-none-eabi/lib/gcc/arm-none-eabi/13.2.0/../../../../arm-none-eabi/lib/libc.a(libc_tinystdio_atod_ryu.c.o) (__clzdi2)
/opt/wonderful/toolchain/gcc-arm-none-eabi/lib/gcc/arm-none-eabi/13.2.0/thumb/libgcc.a(_aeabi_ldivmod.o)
                              /opt/wonderful/toolchain/gcc-arm-none-eabi/lib/gcc/arm-none-eabi/13.2.0/../../../../arm-none-eabi/lib/libc.a(libc_time_gmtime_r.c.o) (__aeabi_ldivmod)
/opt/wonderful/toolchain/gcc-arm-none-eabi/lib/gcc/arm-none-eabi/13.2.0/thumb/libgcc.a(_aeabi_uldivmod.o)
                              /opt/wonderful/toolchain/gcc-arm-none-eabi/lib/gcc/arm-none-eabi/13.2.0/../../../../arm-none-eabi/lib/libc.a(libc_tinystdio_vfprintf.c.o) (__aeabi_uldivmod)
/opt/wonderful/toolchain/gcc-arm-none-eabi/lib/gcc/arm-none-eabi/13.2.0/thumb/libgcc.a(_muldi3.o)
                              /opt/wonderful/toolchain/gcc-arm-none-eabi/lib/gcc/arm-none-eabi/13.2.0/../../../../arm-none-eabi/lib/libc.a(libc_time_mktime.c.o) (__aeabi_lmul)
/opt/wonderful/toolchain/gcc-arm-none-eabi/lib/gcc/arm-none-eabi/13.2.0/thumb/libgcc.a(_udivmoddi4.o)
                              /opt/wonderful/toolchain/gcc-arm-none-eabi/lib/gcc/arm-none-eabi/13.2.0/thumb/libgcc.a(_aeabi_ldivmod.o) (__udivmoddi4)
/opt/wonderful/thirdparty/blocksds/core/libs/libnds/lib/libnds9.a(syscalls.c.o)
                              /opt/wonderful/toolchain/gcc-arm-none-eabi/lib/gcc/arm-none-eabi/13.2.0/../../../../arm-none-eabi/lib/libc.a(libc_stdlib_pico-exit.c.o) (_exit)

Discarded input sections

 .text          0x00000000        0x0 build/source/main.cpp.o
 .data          0x00000000        0x0 build/source/main.cpp.o
 .bss           0x00000000        0x0 build/source/main.cpp.o
 .text._Z9init_textv
                0x00000000       0x3c build/source/main.cpp.o
 .text._Z25unload_minigame_signaturev
                0x00000000        0x4 build/source/main.cpp.o
 .text._Z11dot_and_boxiiiiii
                0x00000000       0x30 build/source/main.cpp.o
 .text          0x00000000        0x0 /opt/wonderful/thirdparty/blocksds/core/sys/crts/ds_arm9_crt0.o
 .data          0x00000000        0x0 /opt/wonderful/thirdparty/blocksds/core/sys/crts/ds_arm9_crt0.o
 .bss           0x00000000        0x0 /opt/wonderful/thirdparty/blocksds/core/sys/crts/ds_arm9_crt0.o
 .text          0x00000000        0x0 /opt/wonderful/thirdparty/blocksds/external/nflib/lib/libnflib.a(nf_2d.c.o)
 .data          0x00000000        0x0 /opt/wonderful/thirdparty/blocksds/external/nflib/lib/libnflib.a(nf_2d.c.o)
 .bss           0x00000000        0x0 /opt/wonderful/thirdparty/blocksds/external/nflib/lib/libnflib.a(nf_2d.c.o)
 .rodata.NF_SpriteFrame.str1.4
                0x00000000       0x15 /opt/wonderful/thirdparty/blocksds/external/nflib/lib/libnflib.a(nf_2d.c.o)
 .text.NF_SpriteFrame
                0x00000000       0xb8 /opt/wonderful/thirdparty/blocksds/external/nflib/lib/libnflib.a(nf_2d.c.o)
 .rodata.NF_EnableSpriteRotScale.str1.4
                0x00000000        0xf /opt/wonderful/thirdparty/blocksds/external/nflib/lib/libnflib.a(nf_2d.c.o)
 .text.NF_EnableSpriteRotScale
                0x00000000       0x6c /opt/wonderful/thirdparty/blocksds/external/nflib/lib/libnflib.a(nf_2d.c.o)
 .text.NF_DisableSpriteRotScale
                0x00000000       0x5c /opt/wonderful/thirdparty/blocksds/external/nflib/lib/libnflib.a(nf_2d.c.o)
 .text.NF_SpriteRotScale
                0x00000000       0x6c /opt/wonderful/thirdparty/blocksds/external/nflib/lib/libnflib.a(nf_2d.c.o)
 .text          0x00000000        0x0 /opt/wonderful/thirdparty/blocksds/external/nflib/lib/libnflib.a(nf_basic.c.o)
 .data          0x00000000        0x0 /opt/wonderful/thirdparty/blocksds/external/nflib/lib/libnflib.a(nf_basic.c.o)
 .bss           0x00000000        0x0 /opt/wonderful/thirdparty/blocksds/external/nflib/lib/libnflib.a(nf_basic.c.o)
 .text          0x00000000        0x0 /opt/wonderful/thirdparty/blocksds/external/nflib/lib/libnflib.a(nf_sprite256.c.o)
 .data          0x00000000        0x0 /opt/wonderful/thirdparty/blocksds/external/nflib/lib/libnflib.a(nf_sprite256.c.o)
 .bss           0x00000000        0x0 /opt/wonderful/thirdparty/blocksds/external/nflib/lib/libnflib.a(nf_sprite256.c.o)
 .text.NF_ResetSpriteBuffers
                0x00000000       0x34 /opt/wonderful/thirdparty/blocksds/external/nflib/lib/libnflib.a(nf_sprite256.c.o)
 .text.NF_UnloadSpriteGfx
                0x00000000       0x64 /opt/wonderful/thirdparty/blocksds/external/nflib/lib/libnflib.a(nf_sprite256.c.o)
 .text.NF_UnloadSpritePal
                0x00000000       0x5c /opt/wonderful/thirdparty/blocksds/external/nflib/lib/libnflib.a(nf_sprite256.c.o)
 .text.NF_VramSpriteGfxDefrag
                0x00000000      0x21c /opt/wonderful/thirdparty/blocksds/external/nflib/lib/libnflib.a(nf_sprite256.c.o)
 .text.NF_FreeSpriteGfx
                0x00000000       0xdc /opt/wonderful/thirdparty/blocksds/external/nflib/lib/libnflib.a(nf_sprite256.c.o)
 .text.NF_SpriteSetPalColor
                0x00000000       0x80 /opt/wonderful/thirdparty/blocksds/external/nflib/lib/libnflib.a(nf_sprite256.c.o)
 .text.NF_SpriteEditPalColor
                0x00000000       0x54 /opt/wonderful/thirdparty/blocksds/external/nflib/lib/libnflib.a(nf_sprite256.c.o)
 .text.NF_SpriteUpdatePalette
                0x00000000       0x88 /opt/wonderful/thirdparty/blocksds/external/nflib/lib/libnflib.a(nf_sprite256.c.o)
 .text.NF_SpriteGetPalColor
                0x00000000       0x58 /opt/wonderful/thirdparty/blocksds/external/nflib/lib/libnflib.a(nf_sprite256.c.o)
 .text          0x00000000        0x0 /opt/wonderful/thirdparty/blocksds/external/nflib/lib/libnflib.a(nf_text.c.o)
 .data          0x00000000        0x0 /opt/wonderful/thirdparty/blocksds/external/nflib/lib/libnflib.a(nf_text.c.o)
 .bss           0x00000000        0x0 /opt/wonderful/thirdparty/blocksds/external/nflib/lib/libnflib.a(nf_text.c.o)
 .text.NF_UnloadTextFont
                0x00000000        0x8 /opt/wonderful/thirdparty/blocksds/external/nflib/lib/libnflib.a(nf_text.c.o)
 .text.NF_DeleteTextLayer
                0x00000000       0x38 /opt/wonderful/thirdparty/blocksds/external/nflib/lib/libnflib.a(nf_text.c.o)
 .text.NF_ClearTextLayer
                0x00000000       0x4c /opt/wonderful/thirdparty/blocksds/external/nflib/lib/libnflib.a(nf_text.c.o)
 .text.NF_DefineTextColor
                0x00000000       0x88 /opt/wonderful/thirdparty/blocksds/external/nflib/lib/libnflib.a(nf_text.c.o)
 .text          0x00000000        0x0 /opt/wonderful/thirdparty/blocksds/external/nflib/lib/libnflib.a(nf_tiledbg.c.o)
 .data          0x00000000        0x0 /opt/wonderful/thirdparty/blocksds/external/nflib/lib/libnflib.a(nf_tiledbg.c.o)
 .bss           0x00000000        0x0 /opt/wonderful/thirdparty/blocksds/external/nflib/lib/libnflib.a(nf_tiledbg.c.o)
 .text.NF_ResetTiledBgBuffers
                0x00000000       0x5c /opt/wonderful/thirdparty/blocksds/external/nflib/lib/libnflib.a(nf_tiledbg.c.o)
 .rodata.NF_LoadTilesForBg.str1.4
                0x00000000        0xc /opt/wonderful/thirdparty/blocksds/external/nflib/lib/libnflib.a(nf_tiledbg.c.o)
 .text.NF_LoadTilesForBg
                0x00000000      0x1d4 /opt/wonderful/thirdparty/blocksds/external/nflib/lib/libnflib.a(nf_tiledbg.c.o)
 .text.NF_UnloadTiledBg
                0x00000000       0x9c /opt/wonderful/thirdparty/blocksds/external/nflib/lib/libnflib.a(nf_tiledbg.c.o)
 .text.NF_GetTileOfMap
                0x00000000       0x3c /opt/wonderful/thirdparty/blocksds/external/nflib/lib/libnflib.a(nf_tiledbg.c.o)
 .text.NF_BgSetPalColor
                0x00000000       0x94 /opt/wonderful/thirdparty/blocksds/external/nflib/lib/libnflib.a(nf_tiledbg.c.o)
 .text.NF_BgEditPalColor
                0x00000000       0x6c /opt/wonderful/thirdparty/blocksds/external/nflib/lib/libnflib.a(nf_tiledbg.c.o)
 .text.NF_BgUpdatePalette
                0x00000000       0xa4 /opt/wonderful/thirdparty/blocksds/external/nflib/lib/libnflib.a(nf_tiledbg.c.o)
 .text.NF_BgGetPalColor
                0x00000000       0x70 /opt/wonderful/thirdparty/blocksds/external/nflib/lib/libnflib.a(nf_tiledbg.c.o)
 .text.NF_GetTilePal
                0x00000000       0x34 /opt/wonderful/thirdparty/blocksds/external/nflib/lib/libnflib.a(nf_tiledbg.c.o)
 .text.NF_SetTilePal
                0x00000000       0x40 /opt/wonderful/thirdparty/blocksds/external/nflib/lib/libnflib.a(nf_tiledbg.c.o)
 .rodata.NF_LoadExBgPal.str1.4
                0x00000000        0x8 /opt/wonderful/thirdparty/blocksds/external/nflib/lib/libnflib.a(nf_tiledbg.c.o)
 .text.NF_LoadExBgPal
                0x00000000       0x60 /opt/wonderful/thirdparty/blocksds/external/nflib/lib/libnflib.a(nf_tiledbg.c.o)
 .text.NF_UnloadExBgPal
                0x00000000       0x44 /opt/wonderful/thirdparty/blocksds/external/nflib/lib/libnflib.a(nf_tiledbg.c.o)
 .text.NF_VramExBgPal
                0x00000000       0x8c /opt/wonderful/thirdparty/blocksds/external/nflib/lib/libnflib.a(nf_tiledbg.c.o)
 .text.NF_SetExBgPal
                0x00000000       0xc0 /opt/wonderful/thirdparty/blocksds/external/nflib/lib/libnflib.a(nf_tiledbg.c.o)
 .text.NF_SetTileHflip
                0x00000000       0x38 /opt/wonderful/thirdparty/blocksds/external/nflib/lib/libnflib.a(nf_tiledbg.c.o)
 .text.NF_SetTileVflip
                0x00000000       0x38 /opt/wonderful/thirdparty/blocksds/external/nflib/lib/libnflib.a(nf_tiledbg.c.o)
 .text          0x00000000        0x0 /opt/wonderful/thirdparty/blocksds/core/libs/libnds/lib/libnds9.a(IntrWait.s.o)
 .data          0x00000000        0x0 /opt/wonderful/thirdparty/blocksds/core/libs/libnds/lib/libnds9.a(IntrWait.s.o)
 .bss           0x00000000        0x0 /opt/wonderful/thirdparty/blocksds/core/libs/libnds/lib/libnds9.a(IntrWait.s.o)
 .text          0x00000000        0x0 /opt/wonderful/thirdparty/blocksds/core/libs/libnds/lib/libnds9.a(mpu_setup.s.o)
 .bss           0x00000000        0x0 /opt/wonderful/thirdparty/blocksds/core/libs/libnds/lib/libnds9.a(mpu_setup.s.o)
 .text.memCached
                0x00000000       0x20 /opt/wonderful/thirdparty/blocksds/core/libs/libnds/lib/libnds9.a(mpu_setup.s.o)
 .text.peripheralSlot2EnableCache
                0x00000000       0x38 /opt/wonderful/thirdparty/blocksds/core/libs/libnds/lib/libnds9.a(mpu_setup.s.o)
 .text.peripheralSlot2DisableCache
                0x00000000       0x44 /opt/wonderful/thirdparty/blocksds/core/libs/libnds/lib/libnds9.a(mpu_setup.s.o)
 .text          0x00000000        0x0 /opt/wonderful/thirdparty/blocksds/core/libs/libnds/lib/libnds9.a(cp15.s.o)
 .data          0x00000000        0x0 /opt/wonderful/thirdparty/blocksds/core/libs/libnds/lib/libnds9.a(cp15.s.o)
 .bss           0x00000000        0x0 /opt/wonderful/thirdparty/blocksds/core/libs/libnds/lib/libnds9.a(cp15.s.o)
 .text.CP15_GetID
                0x00000000        0x8 /opt/wonderful/thirdparty/blocksds/core/libs/libnds/lib/libnds9.a(cp15.s.o)
 .text.CP15_GetCacheType
                0x00000000        0x8 /opt/wonderful/thirdparty/blocksds/core/libs/libnds/lib/libnds9.a(cp15.s.o)
 .text.CP15_GetTCMSize
                0x00000000        0x8 /opt/wonderful/thirdparty/blocksds/core/libs/libnds/lib/libnds9.a(cp15.s.o)
 .text.CP15_GetControl
                0x00000000        0x8 /opt/wonderful/thirdparty/blocksds/core/libs/libnds/lib/libnds9.a(cp15.s.o)
 .text.CP15_SetControl
                0x00000000        0x8 /opt/wonderful/thirdparty/blocksds/core/libs/libnds/lib/libnds9.a(cp15.s.o)
 .text.CP15_GetDataCachable
                0x00000000        0x8 /opt/wonderful/thirdparty/blocksds/core/libs/libnds/lib/libnds9.a(cp15.s.o)
 .text.CP15_GetInstructionCachable
                0x00000000        0x8 /opt/wonderful/thirdparty/blocksds/core/libs/libnds/lib/libnds9.a(cp15.s.o)
 .text.CP15_SetDataCachable
                0x00000000        0x8 /opt/wonderful/thirdparty/blocksds/core/libs/libnds/lib/libnds9.a(cp15.s.o)
 .text.CP15_SetInstructionCachable
                0x00000000        0x8 /opt/wonderful/thirdparty/blocksds/core/libs/libnds/lib/libnds9.a(cp15.s.o)
 .text.CP15_GetDataBufferable
                0x00000000        0x8 /opt/wonderful/thirdparty/blocksds/core/libs/libnds/lib/libnds9.a(cp15.s.o)
 .text.CP15_SetDataBufferable
                0x00000000        0x8 /opt/wonderful/thirdparty/blocksds/core/libs/libnds/lib/libnds9.a(cp15.s.o)
 .text.CP15_GetDataPermissions
                0x00000000        0x8 /opt/wonderful/thirdparty/blocksds/core/libs/libnds/lib/libnds9.a(cp15.s.o)
 .text.CP15_GetInstructionPermissions
                0x00000000        0x8 /opt/wonderful/thirdparty/blocksds/core/libs/libnds/lib/libnds9.a(cp15.s.o)
 .text.CP15_SetDataPermissions
                0x00000000        0x8 /opt/wonderful/thirdparty/blocksds/core/libs/libnds/lib/libnds9.a(cp15.s.o)
 .text.CP15_SetInstructionPermissions
                0x00000000        0x8 /opt/wonderful/thirdparty/blocksds/core/libs/libnds/lib/libnds9.a(cp15.s.o)
 .text.CP15_GetRegion0
                0x00000000        0x8 /opt/wonderful/thirdparty/blocksds/core/libs/libnds/lib/libnds9.a(cp15.s.o)
 .text.CP15_GetRegion1
                0x00000000        0x8 /opt/wonderful/thirdparty/blocksds/core/libs/libnds/lib/libnds9.a(cp15.s.o)
 .text.CP15_GetRegion2
                0x00000000        0x8 /opt/wonderful/thirdparty/blocksds/core/libs/libnds/lib/libnds9.a(cp15.s.o)
 .text.CP15_GetRegion3
                0x00000000        0x8 /opt/wonderful/thirdparty/blocksds/core/libs/libnds/lib/libnds9.a(cp15.s.o)
 .text.CP15_GetRegion4
                0x00000000        0x8 /opt/wonderful/thirdparty/blocksds/core/libs/libnds/lib/libnds9.a(cp15.s.o)
 .text.CP15_GetRegion5
                0x00000000        0x8 /opt/wonderful/thirdparty/blocksds/core/libs/libnds/lib/libnds9.a(cp15.s.o)
 .text.CP15_GetRegion6
                0x00000000        0x8 /opt/wonderful/thirdparty/blocksds/core/libs/libnds/lib/libnds9.a(cp15.s.o)
 .text.CP15_GetRegion7
                0x00000000        0x8 /opt/wonderful/thirdparty/blocksds/core/libs/libnds/lib/libnds9.a(cp15.s.o)
 .text.CP15_SetRegion0
                0x00000000        0x8 /opt/wonderful/thirdparty/blocksds/core/libs/libnds/lib/libnds9.a(cp15.s.o)
 .text.CP15_SetRegion1
                0x00000000        0x8 /opt/wonderful/thirdparty/blocksds/core/libs/libnds/lib/libnds9.a(cp15.s.o)
 .text.CP15_SetRegion2
                0x00000000        0x8 /opt/wonderful/thirdparty/blocksds/core/libs/libnds/lib/libnds9.a(cp15.s.o)
 .text.CP15_SetRegion3
                0x00000000        0x8 /opt/wonderful/thirdparty/blocksds/core/libs/libnds/lib/libnds9.a(cp15.s.o)
 .text.CP15_SetRegion4
                0x00000000        0x8 /opt/wonderful/thirdparty/blocksds/core/libs/libnds/lib/libnds9.a(cp15.s.o)
 .text.CP15_SetRegion5
                0x00000000        0x8 /opt/wonderful/thirdparty/blocksds/core/libs/libnds/lib/libnds9.a(cp15.s.o)
 .text.CP15_SetRegion6
                0x00000000        0x8 /opt/wonderful/thirdparty/blocksds/core/libs/libnds/lib/libnds9.a(cp15.s.o)
 .text.CP15_SetRegion7
                0x00000000        0x8 /opt/wonderful/thirdparty/blocksds/core/libs/libnds/lib/libnds9.a(cp15.s.o)
 .text.CP15_FlushICache
                0x00000000        0xc /opt/wonderful/thirdparty/blocksds/core/libs/libnds/lib/libnds9.a(cp15.s.o)
 .text.CP15_FlushICacheEntry
                0x00000000        0x8 /opt/wonderful/thirdparty/blocksds/core/libs/libnds/lib/libnds9.a(cp15.s.o)
 .text.CP15_PrefetchICacheLine
                0x00000000        0x8 /opt/wonderful/thirdparty/blocksds/core/libs/libnds/lib/libnds9.a(cp15.s.o)
 .text.CP15_FlushDCache
                0x00000000        0xc /opt/wonderful/thirdparty/blocksds/core/libs/libnds/lib/libnds9.a(cp15.s.o)
 .text.CP15_FlushDCacheEntry
                0x00000000        0x8 /opt/wonderful/thirdparty/blocksds/core/libs/libnds/lib/libnds9.a(cp15.s.o)
 .text.CP15_CleanDCacheEntry
                0x00000000        0x8 /opt/wonderful/thirdparty/blocksds/core/libs/libnds/lib/libnds9.a(cp15.s.o)
 .text.CP15_CleanAndFlushDCacheEntry
                0x00000000        0x8 /opt/wonderful/thirdparty/blocksds/core/libs/libnds/lib/libnds9.a(cp15.s.o)
 .text.CP15_CleanDCacheEntryByIndex
                0x00000000        0x8 /opt/wonderful/thirdparty/blocksds/core/libs/libnds/lib/libnds9.a(cp15.s.o)
 .text.CP15_CleanAndFlushDCacheEntryByIndex
                0x00000000        0x8 /opt/wonderful/thirdparty/blocksds/core/libs/libnds/lib/libnds9.a(cp15.s.o)
 .text.CP15_DrainWriteBuffer
                0x00000000        0xc /opt/wonderful/thirdparty/blocksds/core/libs/libnds/lib/libnds9.a(cp15.s.o)
 .text.CP15_WaitForInterrupt
                0x00000000        0xc /opt/wonderful/thirdparty/blocksds/core/libs/libnds/lib/libnds9.a(cp15.s.o)
 .text.CP15_GetDCacheLockdown
                0x00000000        0x8 /opt/wonderful/thirdparty/blocksds/core/libs/libnds/lib/libnds9.a(cp15.s.o)
 .text.CP15_GetICacheLockdown
                0x00000000        0x8 /opt/wonderful/thirdparty/blocksds/core/libs/libnds/lib/libnds9.a(cp15.s.o)
 .text.CP15_SetDCacheLockdown
                0x00000000        0x8 /opt/wonderful/thirdparty/blocksds/core/libs/libnds/lib/libnds9.a(cp15.s.o)
 .text.CP15_SetICacheLockdown
                0x00000000        0x8 /opt/wonderful/thirdparty/blocksds/core/libs/libnds/lib/libnds9.a(cp15.s.o)
 .text.CP15_GetDTCM
                0x00000000        0x8 /opt/wonderful/thirdparty/blocksds/core/libs/libnds/lib/libnds9.a(cp15.s.o)
 .text.CP15_GetITCM
                0x00000000        0x8 /opt/wonderful/thirdparty/blocksds/core/libs/libnds/lib/libnds9.a(cp15.s.o)
 .text.CP15_SetDTCM
                0x00000000        0x8 /opt/wonderful/thirdparty/blocksds/core/libs/libnds/lib/libnds9.a(cp15.s.o)
 .text.CP15_SetITCM
                0x00000000        0x8 /opt/wonderful/thirdparty/blocksds/core/libs/libnds/lib/libnds9.a(cp15.s.o)
 .text.CP15_CleanAndFlushDCache
                0x00000000       0x34 /opt/wonderful/thirdparty/blocksds/core/libs/libnds/lib/libnds9.a(cp15.s.o)
 .ARM.attributes
                0x00000000       0x21 /opt/wonderful/thirdparty/blocksds/core/libs/libnds/lib/libnds9.a(cp15.s.o)
 .text          0x00000000        0x0 /opt/wonderful/thirdparty/blocksds/core/libs/libnds/lib/libnds9.a(dma.s.o)
 .data          0x00000000        0x0 /opt/wonderful/thirdparty/blocksds/core/libs/libnds/lib/libnds9.a(dma.s.o)
 .bss           0x00000000        0x0 /opt/wonderful/thirdparty/blocksds/core/libs/libnds/lib/libnds9.a(dma.s.o)
 .itcm          0x00000000        0x0 /opt/wonderful/thirdparty/blocksds/core/libs/libnds/lib/libnds9.a(dma.s.o)
 .text.dmaStopSafe
                0x00000000       0x44 /opt/wonderful/thirdparty/blocksds/core/libs/libnds/lib/libnds9.a(dma.s.o)
 .text          0x00000000        0x0 /opt/wonderful/thirdparty/blocksds/core/libs/libnds/lib/libnds9.a(memcpy.s.o)
 .data          0x00000000        0x0 /opt/wonderful/thirdparty/blocksds/core/libs/libnds/lib/libnds9.a(memcpy.s.o)
 .bss           0x00000000        0x0 /opt/wonderful/thirdparty/blocksds/core/libs/libnds/lib/libnds9.a(memcpy.s.o)
 .text          0x00000000        0x0 /opt/wonderful/thirdparty/blocksds/core/libs/libnds/lib/libnds9.a(memset.s.o)
 .data          0x00000000        0x0 /opt/wonderful/thirdparty/blocksds/core/libs/libnds/lib/libnds9.a(memset.s.o)
 .bss           0x00000000        0x0 /opt/wonderful/thirdparty/blocksds/core/libs/libnds/lib/libnds9.a(memset.s.o)
 .text.__aeabi_memclr
                0x00000000        0x8 /opt/wonderful/thirdparty/blocksds/core/libs/libnds/lib/libnds9.a(memset.s.o)
 .text.__aeabi_memclr8
                0x00000000        0x0 /opt/wonderful/thirdparty/blocksds/core/libs/libnds/lib/libnds9.a(memset.s.o)
 .text.__aeabi_memclr4
                0x00000000        0x8 /opt/wonderful/thirdparty/blocksds/core/libs/libnds/lib/libnds9.a(memset.s.o)
 .text          0x00000000        0x0 /opt/wonderful/thirdparty/blocksds/core/libs/libnds/lib/libnds9.a(touch.c.o)
 .data          0x00000000        0x0 /opt/wonderful/thirdparty/blocksds/core/libs/libnds/lib/libnds9.a(touch.c.o)
 .bss           0x00000000        0x0 /opt/wonderful/thirdparty/blocksds/core/libs/libnds/lib/libnds9.a(touch.c.o)
 .text.touchReadXY
                0x00000000       0x3c /opt/wonderful/thirdparty/blocksds/core/libs/libnds/lib/libnds9.a(touch.c.o)
 .text          0x00000000        0x0 /opt/wonderful/thirdparty/blocksds/core/libs/libnds/lib/libnds9.a(sprite.c.o)
 .data          0x00000000        0x0 /opt/wonderful/thirdparty/blocksds/core/libs/libnds/lib/libnds9.a(sprite.c.o)
 .bss           0x00000000        0x0 /opt/wonderful/thirdparty/blocksds/core/libs/libnds/lib/libnds9.a(sprite.c.o)
 .text.oamDisable
                0x00000000       0x2c /opt/wonderful/thirdparty/blocksds/core/libs/libnds/lib/libnds9.a(sprite.c.o)
 .text.oamEnable
                0x00000000       0x24 /opt/wonderful/thirdparty/blocksds/core/libs/libnds/lib/libnds9.a(sprite.c.o)
 .text.oamGetGfxPtr
                0x00000000       0x38 /opt/wonderful/thirdparty/blocksds/core/libs/libnds/lib/libnds9.a(sprite.c.o)
 .text.oamClear
                0x00000000       0x24 /opt/wonderful/thirdparty/blocksds/core/libs/libnds/lib/libnds9.a(sprite.c.o)
 .text.oamRotateScale
                0x00000000       0x4c /opt/wonderful/thirdparty/blocksds/core/libs/libnds/lib/libnds9.a(sprite.c.o)
 .text          0x00000000        0x0 /opt/wonderful/thirdparty/blocksds/core/libs/libnds/lib/libnds9.a(sprite_alloc.c.o)
 .data          0x00000000        0x0 /opt/wonderful/thirdparty/blocksds/core/libs/libnds/lib/libnds9.a(sprite_alloc.c.o)
 .bss           0x00000000        0x0 /opt/wonderful/thirdparty/blocksds/core/libs/libnds/lib/libnds9.a(sprite_alloc.c.o)
 .text.oamAllocateGfx
                0x00000000      0x528 /opt/wonderful/thirdparty/blocksds/core/libs/libnds/lib/libnds9.a(sprite_alloc.c.o)
 .text.oamFreeGfx
                0x00000000      0x434 /opt/wonderful/thirdparty/blocksds/core/libs/libnds/lib/libnds9.a(sprite_alloc.c.o)
 .text.oamCountFragments
                0x00000000       0x7c /opt/wonderful/thirdparty/blocksds/core/libs/libnds/lib/libnds9.a(sprite_alloc.c.o)
 .text          0x00000000        0x0 /opt/wonderful/thirdparty/blocksds/core/libs/libnds/lib/libnds9.a(video.c.o)
 .data          0x00000000        0x0 /opt/wonderful/thirdparty/blocksds/core/libs/libnds/lib/libnds9.a(video.c.o)
 .bss           0x00000000        0x0 /opt/wonderful/thirdparty/blocksds/core/libs/libnds/lib/libnds9.a(video.c.o)
 .text.vramSetPrimaryBanks
                0x00000000       0x44 /opt/wonderful/thirdparty/blocksds/core/libs/libnds/lib/libnds9.a(video.c.o)
 .text.vramSetBanks_EFG
                0x00000000       0x38 /opt/wonderful/thirdparty/blocksds/core/libs/libnds/lib/libnds9.a(video.c.o)
 .text          0x00000000        0x0 /opt/wonderful/thirdparty/blocksds/core/libs/libnds/lib/libnds9.a(securearea.c.o)
 .data          0x00000000        0x0 /opt/wonderful/thirdparty/blocksds/core/libs/libnds/lib/libnds9.a(securearea.c.o)
 .bss           0x00000000        0x0 /opt/wonderful/thirdparty/blocksds/core/libs/libnds/lib/libnds9.a(securearea.c.o)
 .text          0x00000000        0x0 /opt/wonderful/thirdparty/blocksds/core/libs/libnds/lib/libnds9.a(keys.c.o)
 .data          0x00000000        0x0 /opt/wonderful/thirdparty/blocksds/core/libs/libnds/lib/libnds9.a(keys.c.o)
 .bss           0x00000000        0x0 /opt/wonderful/thirdparty/blocksds/core/libs/libnds/lib/libnds9.a(keys.c.o)
 .text.keysDownRepeat
                0x00000000       0x10 /opt/wonderful/thirdparty/blocksds/core/libs/libnds/lib/libnds9.a(keys.c.o)
 .text.keysSetRepeat
                0x00000000       0x24 /opt/wonderful/thirdparty/blocksds/core/libs/libnds/lib/libnds9.a(keys.c.o)
 .text.keysUp   0x00000000       0x18 /opt/wonderful/thirdparty/blocksds/core/libs/libnds/lib/libnds9.a(keys.c.o)
 .text          0x00000000        0x0 /opt/wonderful/thirdparty/blocksds/core/libs/libnds/lib/libnds9.a(initSystem.c.o)
 .data          0x00000000        0x0 /opt/wonderful/thirdparty/blocksds/core/libs/libnds/lib/libnds9.a(initSystem.c.o)
 .bss           0x00000000        0x0 /opt/wonderful/thirdparty/blocksds/core/libs/libnds/lib/libnds9.a(initSystem.c.o)
 .text          0x00000000        0x0 /opt/wonderful/thirdparty/blocksds/core/libs/libnds/lib/libnds9.a(cache.c.o)
 .data          0x00000000        0x0 /opt/wonderful/thirdparty/blocksds/core/libs/libnds/lib/libnds9.a(cache.c.o)
 .bss           0x00000000        0x0 /opt/wonderful/thirdparty/blocksds/core/libs/libnds/lib/libnds9.a(cache.c.o)
 .text          0x00000000        0x0 /opt/wonderful/thirdparty/blocksds/core/libs/libnds/lib/libnds9.a(console.c.o)
 .data          0x00000000        0x0 /opt/wonderful/thirdparty/blocksds/core/libs/libnds/lib/libnds9.a(console.c.o)
 .bss           0x00000000        0x0 /opt/wonderful/thirdparty/blocksds/core/libs/libnds/lib/libnds9.a(console.c.o)
 .text.nocash_write
                0x00000000       0x1c /opt/wonderful/thirdparty/blocksds/core/libs/libnds/lib/libnds9.a(console.c.o)
 .text.consoleGetDefault
                0x00000000        0x8 /opt/wonderful/thirdparty/blocksds/core/libs/libnds/lib/libnds9.a(console.c.o)
 .text.consoleSelect
                0x00000000       0x28 /opt/wonderful/thirdparty/blocksds/core/libs/libnds/lib/libnds9.a(console.c.o)
 .text.consoleDebugInit
                0x00000000       0x44 /opt/wonderful/thirdparty/blocksds/core/libs/libnds/lib/libnds9.a(console.c.o)
 .text.consoleSetFont
                0x00000000       0x20 /opt/wonderful/thirdparty/blocksds/core/libs/libnds/lib/libnds9.a(console.c.o)
 .rodata.consoleClear.str1.4
                0x00000000        0x5 /opt/wonderful/thirdparty/blocksds/core/libs/libnds/lib/libnds9.a(console.c.o)
 .text.consoleClear
                0x00000000       0x10 /opt/wonderful/thirdparty/blocksds/core/libs/libnds/lib/libnds9.a(console.c.o)
 .text.consoleSetWindow
                0x00000000       0x20 /opt/wonderful/thirdparty/blocksds/core/libs/libnds/lib/libnds9.a(console.c.o)
 .text.consoleSetCustomStdout
                0x00000000       0x18 /opt/wonderful/thirdparty/blocksds/core/libs/libnds/lib/libnds9.a(console.c.o)
 .text.consoleSetCustomStderr
                0x00000000       0x18 /opt/wonderful/thirdparty/blocksds/core/libs/libnds/lib/libnds9.a(console.c.o)
 .text          0x00000000        0x0 /opt/wonderful/thirdparty/blocksds/core/libs/libnds/lib/libnds9.a(trig.c.o)
 .data          0x00000000        0x0 /opt/wonderful/thirdparty/blocksds/core/libs/libnds/lib/libnds9.a(trig.c.o)
 .bss           0x00000000        0x0 /opt/wonderful/thirdparty/blocksds/core/libs/libnds/lib/libnds9.a(trig.c.o)
 .text.asinComp
                0x00000000       0x20 /opt/wonderful/thirdparty/blocksds/core/libs/libnds/lib/libnds9.a(trig.c.o)
 .text.tanLutLookup
                0x00000000       0x30 /opt/wonderful/thirdparty/blocksds/core/libs/libnds/lib/libnds9.a(trig.c.o)
 .text.tanLerp  0x00000000       0xa8 /opt/wonderful/thirdparty/blocksds/core/libs/libnds/lib/libnds9.a(trig.c.o)
 .text.asinLerp
                0x00000000       0x98 /opt/wonderful/thirdparty/blocksds/core/libs/libnds/lib/libnds9.a(trig.c.o)
 .text.acosLerp
                0x00000000       0xa4 /opt/wonderful/thirdparty/blocksds/core/libs/libnds/lib/libnds9.a(trig.c.o)
 .text.atanComp
                0x00000000       0x20 /opt/wonderful/thirdparty/blocksds/core/libs/libnds/lib/libnds9.a(trig.c.o)
 .rodata.TAN_LUT
                0x00000000      0x204 /opt/wonderful/thirdparty/blocksds/core/libs/libnds/lib/libnds9.a(trig.c.o)
 .text          0x00000000        0x0 /opt/wonderful/thirdparty/blocksds/core/libs/libnds/lib/libnds9.a(filesystem.c.o)
 .data          0x00000000        0x0 /opt/wonderful/thirdparty/blocksds/core/libs/libnds/lib/libnds9.a(filesystem.c.o)
 .bss           0x00000000        0x0 /opt/wonderful/thirdparty/blocksds/core/libs/libnds/lib/libnds9.a(filesystem.c.o)
 .text.ftruncate_internal
                0x00000000       0xf0 /opt/wonderful/thirdparty/blocksds/core/libs/libnds/lib/libnds9.a(filesystem.c.o)
 .text.lseek64  0x00000000       0x7c /opt/wonderful/thirdparty/blocksds/core/libs/libnds/lib/libnds9.a(filesystem.c.o)
 .text.unlink   0x00000000       0x30 /opt/wonderful/thirdparty/blocksds/core/libs/libnds/lib/libnds9.a(filesystem.c.o)
 .text.rmdir    0x00000000       0x30 /opt/wonderful/thirdparty/blocksds/core/libs/libnds/lib/libnds9.a(filesystem.c.o)
 .text.stat     0x00000000       0xe4 /opt/wonderful/thirdparty/blocksds/core/libs/libnds/lib/libnds9.a(filesystem.c.o)
 .text.fstat    0x00000000       0x54 /opt/wonderful/thirdparty/blocksds/core/libs/libnds/lib/libnds9.a(filesystem.c.o)
 .text.isatty   0x00000000        0x4 /opt/wonderful/thirdparty/blocksds/core/libs/libnds/lib/libnds9.a(filesystem.c.o)
 .text.link     0x00000000       0x1c /opt/wonderful/thirdparty/blocksds/core/libs/libnds/lib/libnds9.a(filesystem.c.o)
 .text.rename   0x00000000       0x30 /opt/wonderful/thirdparty/blocksds/core/libs/libnds/lib/libnds9.a(filesystem.c.o)
 .text.ftruncate
                0x00000000       0x58 /opt/wonderful/thirdparty/blocksds/core/libs/libnds/lib/libnds9.a(filesystem.c.o)
 .text.truncate
                0x00000000       0x3c /opt/wonderful/thirdparty/blocksds/core/libs/libnds/lib/libnds9.a(filesystem.c.o)
 .text.mkdir    0x00000000       0x30 /opt/wonderful/thirdparty/blocksds/core/libs/libnds/lib/libnds9.a(filesystem.c.o)
 .text.chmod    0x00000000       0x1c /opt/wonderful/thirdparty/blocksds/core/libs/libnds/lib/libnds9.a(filesystem.c.o)
 .text.fchmod   0x00000000       0x1c /opt/wonderful/thirdparty/blocksds/core/libs/libnds/lib/libnds9.a(filesystem.c.o)
 .text.fchmodat
                0x00000000       0x1c /opt/wonderful/thirdparty/blocksds/core/libs/libnds/lib/libnds9.a(filesystem.c.o)
 .text.chown    0x00000000       0x1c /opt/wonderful/thirdparty/blocksds/core/libs/libnds/lib/libnds9.a(filesystem.c.o)
 .text.fchown   0x00000000       0x1c /opt/wonderful/thirdparty/blocksds/core/libs/libnds/lib/libnds9.a(filesystem.c.o)
 .text.fchownat
                0x00000000       0x1c /opt/wonderful/thirdparty/blocksds/core/libs/libnds/lib/libnds9.a(filesystem.c.o)
 .text.readlink
                0x00000000       0x1c /opt/wonderful/thirdparty/blocksds/core/libs/libnds/lib/libnds9.a(filesystem.c.o)
 .text.symlink  0x00000000       0x1c /opt/wonderful/thirdparty/blocksds/core/libs/libnds/lib/libnds9.a(filesystem.c.o)
 .text          0x00000000        0x0 /opt/wonderful/thirdparty/blocksds/core/libs/libnds/lib/libnds9.a(fatfs.c.o)
 .data          0x00000000        0x0 /opt/wonderful/thirdparty/blocksds/core/libs/libnds/lib/libnds9.a(fatfs.c.o)
 .bss           0x00000000        0x0 /opt/wonderful/thirdparty/blocksds/core/libs/libnds/lib/libnds9.a(fatfs.c.o)
 .text.fatInit  0x00000000       0x20 /opt/wonderful/thirdparty/blocksds/core/libs/libnds/lib/libnds9.a(fatfs.c.o)
 .text          0x00000000        0x0 /opt/wonderful/thirdparty/blocksds/core/libs/libnds/lib/libnds9.a(ff.c.o)
 .data          0x00000000        0x0 /opt/wonderful/thirdparty/blocksds/core/libs/libnds/lib/libnds9.a(ff.c.o)
 .bss           0x00000000        0x0 /opt/wonderful/thirdparty/blocksds/core/libs/libnds/lib/libnds9.a(ff.c.o)
 .text.dir_read.constprop.0
                0x00000000      0x15c /opt/wonderful/thirdparty/blocksds/core/libs/libnds/lib/libnds9.a(ff.c.o)
 .text.dir_remove
                0x00000000       0x58 /opt/wonderful/thirdparty/blocksds/core/libs/libnds/lib/libnds9.a(ff.c.o)
 .text.f_getcwd
                0x00000000      0x208 /opt/wonderful/thirdparty/blocksds/core/libs/libnds/lib/libnds9.a(ff.c.o)
 .text.f_opendir
                0x00000000       0xf8 /opt/wonderful/thirdparty/blocksds/core/libs/libnds/lib/libnds9.a(ff.c.o)
 .text.f_closedir
                0x00000000       0x5c /opt/wonderful/thirdparty/blocksds/core/libs/libnds/lib/libnds9.a(ff.c.o)
 .text.f_readdir
                0x00000000       0xbc /opt/wonderful/thirdparty/blocksds/core/libs/libnds/lib/libnds9.a(ff.c.o)
 .text.f_getfree
                0x00000000      0x130 /opt/wonderful/thirdparty/blocksds/core/libs/libnds/lib/libnds9.a(ff.c.o)
 .text.f_truncate
                0x00000000      0x120 /opt/wonderful/thirdparty/blocksds/core/libs/libnds/lib/libnds9.a(ff.c.o)
 .text.f_unlink
                0x00000000      0x118 /opt/wonderful/thirdparty/blocksds/core/libs/libnds/lib/libnds9.a(ff.c.o)
 .text.f_mkdir  0x00000000      0x258 /opt/wonderful/thirdparty/blocksds/core/libs/libnds/lib/libnds9.a(ff.c.o)
 .text.f_rename
                0x00000000      0x1a0 /opt/wonderful/thirdparty/blocksds/core/libs/libnds/lib/libnds9.a(ff.c.o)
 .rodata.VolumeStr
                0x00000000        0x8 /opt/wonderful/thirdparty/blocksds/core/libs/libnds/lib/libnds9.a(ff.c.o)
 .text          0x00000000        0x0 /opt/wonderful/thirdparty/blocksds/core/libs/libnds/lib/libnds9.a(ffunicode.c.o)
 .data          0x00000000        0x0 /opt/wonderful/thirdparty/blocksds/core/libs/libnds/lib/libnds9.a(ffunicode.c.o)
 .bss           0x00000000        0x0 /opt/wonderful/thirdparty/blocksds/core/libs/libnds/lib/libnds9.a(ffunicode.c.o)
 .text          0x00000000        0x0 /opt/wonderful/thirdparty/blocksds/core/libs/libnds/lib/libnds9.a(ffsystem.c.o)
 .data          0x00000000        0x0 /opt/wonderful/thirdparty/blocksds/core/libs/libnds/lib/libnds9.a(ffsystem.c.o)
 .bss           0x00000000        0x0 /opt/wonderful/thirdparty/blocksds/core/libs/libnds/lib/libnds9.a(ffsystem.c.o)
 .text          0x00000000        0x0 /opt/wonderful/thirdparty/blocksds/core/libs/libnds/lib/libnds9.a(diskio.c.o)
 .data          0x00000000        0x0 /opt/wonderful/thirdparty/blocksds/core/libs/libnds/lib/libnds9.a(diskio.c.o)
 .bss           0x00000000        0x0 /opt/wonderful/thirdparty/blocksds/core/libs/libnds/lib/libnds9.a(diskio.c.o)
 .text          0x00000000        0x0 /opt/wonderful/thirdparty/blocksds/core/libs/libnds/lib/libnds9.a(cache.c.o)
 .data          0x00000000        0x0 /opt/wonderful/thirdparty/blocksds/core/libs/libnds/lib/libnds9.a(cache.c.o)
 .bss           0x00000000        0x0 /opt/wonderful/thirdparty/blocksds/core/libs/libnds/lib/libnds9.a(cache.c.o)
 .text          0x00000000        0x0 /opt/wonderful/thirdparty/blocksds/core/libs/libnds/lib/libnds9.a(nitrofs.c.o)
 .data          0x00000000        0x0 /opt/wonderful/thirdparty/blocksds/core/libs/libnds/lib/libnds9.a(nitrofs.c.o)
 .bss           0x00000000        0x0 /opt/wonderful/thirdparty/blocksds/core/libs/libnds/lib/libnds9.a(nitrofs.c.o)
 .text.nitrofs_rewinddir
                0x00000000       0x14 /opt/wonderful/thirdparty/blocksds/core/libs/libnds/lib/libnds9.a(nitrofs.c.o)
 .text.nitrofs_readdir
                0x00000000       0x4c /opt/wonderful/thirdparty/blocksds/core/libs/libnds/lib/libnds9.a(nitrofs.c.o)
 .text.nitrofs_opendir
                0x00000000       0x54 /opt/wonderful/thirdparty/blocksds/core/libs/libnds/lib/libnds9.a(nitrofs.c.o)
 .rodata.nitrofs_getcwd.str1.4
                0x00000000        0x7 /opt/wonderful/thirdparty/blocksds/core/libs/libnds/lib/libnds9.a(nitrofs.c.o)
 .text.nitrofs_getcwd
                0x00000000      0x168 /opt/wonderful/thirdparty/blocksds/core/libs/libnds/lib/libnds9.a(nitrofs.c.o)
 .text.nitrofs_stat
                0x00000000       0xac /opt/wonderful/thirdparty/blocksds/core/libs/libnds/lib/libnds9.a(nitrofs.c.o)
 .text.nitrofs_fstat
                0x00000000       0x3c /opt/wonderful/thirdparty/blocksds/core/libs/libnds/lib/libnds9.a(nitrofs.c.o)
 .text.nitroFSExit
                0x00000000       0x24 /opt/wonderful/thirdparty/blocksds/core/libs/libnds/lib/libnds9.a(nitrofs.c.o)
 .text.nitroFSInitLookupCache
                0x00000000       0x2c /opt/wonderful/thirdparty/blocksds/core/libs/libnds/lib/libnds9.a(nitrofs.c.o)
 .text          0x00000000        0x0 /opt/wonderful/thirdparty/blocksds/core/libs/libnds/lib/libnds9.a(crt0_argv.c.o)
 .data          0x00000000        0x0 /opt/wonderful/thirdparty/blocksds/core/libs/libnds/lib/libnds9.a(crt0_argv.c.o)
 .bss           0x00000000        0x0 /opt/wonderful/thirdparty/blocksds/core/libs/libnds/lib/libnds9.a(crt0_argv.c.o)
 .text          0x00000000        0x0 /opt/wonderful/thirdparty/blocksds/core/libs/libnds/lib/libnds9.a(chdir.c.o)
 .data          0x00000000        0x0 /opt/wonderful/thirdparty/blocksds/core/libs/libnds/lib/libnds9.a(chdir.c.o)
 .bss           0x00000000        0x0 /opt/wonderful/thirdparty/blocksds/core/libs/libnds/lib/libnds9.a(chdir.c.o)
 .text.getcwd   0x00000000       0xc4 /opt/wonderful/thirdparty/blocksds/core/libs/libnds/lib/libnds9.a(chdir.c.o)
 .text          0x00000000        0x0 /opt/wonderful/thirdparty/blocksds/core/libs/libnds/lib/libnds9.a(iob.c.o)
 .data          0x00000000        0x0 /opt/wonderful/thirdparty/blocksds/core/libs/libnds/lib/libnds9.a(iob.c.o)
 .bss           0x00000000        0x0 /opt/wonderful/thirdparty/blocksds/core/libs/libnds/lib/libnds9.a(iob.c.o)
 .text          0x00000000        0x0 /opt/wonderful/thirdparty/blocksds/core/libs/libnds/lib/libnds9.a(dldi.c.o)
 .data          0x00000000        0x0 /opt/wonderful/thirdparty/blocksds/core/libs/libnds/lib/libnds9.a(dldi.c.o)
 .bss           0x00000000        0x0 /opt/wonderful/thirdparty/blocksds/core/libs/libnds/lib/libnds9.a(dldi.c.o)
 .text.dldiSetMode
                0x00000000        0xc /opt/wonderful/thirdparty/blocksds/core/libs/libnds/lib/libnds9.a(dldi.c.o)
 .text.dldiGetMode
                0x00000000        0xc /opt/wonderful/thirdparty/blocksds/core/libs/libnds/lib/libnds9.a(dldi.c.o)
 .text.dldiIsValid
                0x00000000       0x38 /opt/wonderful/thirdparty/blocksds/core/libs/libnds/lib/libnds9.a(dldi.c.o)
 .text.dldiFixDriverAddresses
                0x00000000       0xd4 /opt/wonderful/thirdparty/blocksds/core/libs/libnds/lib/libnds9.a(dldi.c.o)
 .text.dldiLoadFromFile
                0x00000000       0xe0 /opt/wonderful/thirdparty/blocksds/core/libs/libnds/lib/libnds9.a(dldi.c.o)
 .text.dldiFree
                0x00000000        0x8 /opt/wonderful/thirdparty/blocksds/core/libs/libnds/lib/libnds9.a(dldi.c.o)
 .data.io_dldi_data
                0x00000000        0x4 /opt/wonderful/thirdparty/blocksds/core/libs/libnds/lib/libnds9.a(dldi.c.o)
 .rodata.DLDI_MAGIC_STRING_BACKWARDS
                0x00000000        0x8 /opt/wonderful/thirdparty/blocksds/core/libs/libnds/lib/libnds9.a(dldi.c.o)
 .rodata.DLDI_MAGIC_NUMBER
                0x00000000        0x4 /opt/wonderful/thirdparty/blocksds/core/libs/libnds/lib/libnds9.a(dldi.c.o)
 .text          0x00000000        0x0 /opt/wonderful/thirdparty/blocksds/core/libs/libnds/lib/libnds9.a(sdmmc.twl.c.o)
 .data          0x00000000        0x0 /opt/wonderful/thirdparty/blocksds/core/libs/libnds/lib/libnds9.a(sdmmc.twl.c.o)
 .bss           0x00000000        0x0 /opt/wonderful/thirdparty/blocksds/core/libs/libnds/lib/libnds9.a(sdmmc.twl.c.o)
 .text.nand_GetDiskStatus
                0x00000000       0x38 /opt/wonderful/thirdparty/blocksds/core/libs/libnds/lib/libnds9.a(sdmmc.twl.c.o)
 .text.nand_GetSectors
                0x00000000       0x38 /opt/wonderful/thirdparty/blocksds/core/libs/libnds/lib/libnds9.a(sdmmc.twl.c.o)
 .text.sdmmc_GetSectors
                0x00000000       0x38 /opt/wonderful/thirdparty/blocksds/core/libs/libnds/lib/libnds9.a(sdmmc.twl.c.o)
 .text.nand_Startup
                0x00000000       0x38 /opt/wonderful/thirdparty/blocksds/core/libs/libnds/lib/libnds9.a(sdmmc.twl.c.o)
 .text.nand_IsInserted
                0x00000000        0x4 /opt/wonderful/thirdparty/blocksds/core/libs/libnds/lib/libnds9.a(sdmmc.twl.c.o)
 .text.nand_ReadSectors
                0x00000000       0x20 /opt/wonderful/thirdparty/blocksds/core/libs/libnds/lib/libnds9.a(sdmmc.twl.c.o)
 .text.nand_WriteSectors
                0x00000000       0x20 /opt/wonderful/thirdparty/blocksds/core/libs/libnds/lib/libnds9.a(sdmmc.twl.c.o)
 .text          0x00000000        0x0 /opt/wonderful/thirdparty/blocksds/core/libs/libnds/lib/libnds9.a(fifosystem.c.o)
 .data          0x00000000        0x0 /opt/wonderful/thirdparty/blocksds/core/libs/libnds/lib/libnds9.a(fifosystem.c.o)
 .bss           0x00000000        0x0 /opt/wonderful/thirdparty/blocksds/core/libs/libnds/lib/libnds9.a(fifosystem.c.o)
 .text.fifoSendSpecialCommand
                0x00000000       0x28 /opt/wonderful/thirdparty/blocksds/core/libs/libnds/lib/libnds9.a(fifosystem.c.o)
 .text.fifoSendAddress
                0x00000000       0x38 /opt/wonderful/thirdparty/blocksds/core/libs/libnds/lib/libnds9.a(fifosystem.c.o)
 .text.fifoGetAddress
                0x00000000       0x7c /opt/wonderful/thirdparty/blocksds/core/libs/libnds/lib/libnds9.a(fifosystem.c.o)
 .text.fifoSetAddressHandler
                0x00000000       0x78 /opt/wonderful/thirdparty/blocksds/core/libs/libnds/lib/libnds9.a(fifosystem.c.o)
 .text.fifoCheckAddress
                0x00000000       0x24 /opt/wonderful/thirdparty/blocksds/core/libs/libnds/lib/libnds9.a(fifosystem.c.o)
 .text.fifoCheckDatamsg
                0x00000000       0x24 /opt/wonderful/thirdparty/blocksds/core/libs/libnds/lib/libnds9.a(fifosystem.c.o)
 .text.fifoCheckDatamsgLength
                0x00000000       0x30 /opt/wonderful/thirdparty/blocksds/core/libs/libnds/lib/libnds9.a(fifosystem.c.o)
 .text.fifoMutexTryAcquire
                0x00000000       0x20 /opt/wonderful/thirdparty/blocksds/core/libs/libnds/lib/libnds9.a(fifosystem.c.o)
 .text          0x00000000        0x0 /opt/wonderful/thirdparty/blocksds/core/libs/libnds/lib/libnds9.a(debugprint.c.o)
 .data          0x00000000        0x0 /opt/wonderful/thirdparty/blocksds/core/libs/libnds/lib/libnds9.a(debugprint.c.o)
 .bss           0x00000000        0x0 /opt/wonderful/thirdparty/blocksds/core/libs/libnds/lib/libnds9.a(debugprint.c.o)
 .text.nocash_putc_buffered
                0x00000000       0x34 /opt/wonderful/thirdparty/blocksds/core/libs/libnds/lib/libnds9.a(debugprint.c.o)
 .bss.nocash_buf_len
                0x00000000        0x1 /opt/wonderful/thirdparty/blocksds/core/libs/libnds/lib/libnds9.a(debugprint.c.o)
 .bss.nocash_buf
                0x00000000       0x78 /opt/wonderful/thirdparty/blocksds/core/libs/libnds/lib/libnds9.a(debugprint.c.o)
 .comment       0x00000000       0x23 /opt/wonderful/thirdparty/blocksds/core/libs/libnds/lib/libnds9.a(debugprint.c.o)
 .ARM.attributes
                0x00000000       0x2b /opt/wonderful/thirdparty/blocksds/core/libs/libnds/lib/libnds9.a(debugprint.c.o)
 .text          0x00000000        0x0 /opt/wonderful/thirdparty/blocksds/core/libs/libnds/lib/libnds9.a(interrupts.c.o)
 .data          0x00000000        0x0 /opt/wonderful/thirdparty/blocksds/core/libs/libnds/lib/libnds9.a(interrupts.c.o)
 .bss           0x00000000        0x0 /opt/wonderful/thirdparty/blocksds/core/libs/libnds/lib/libnds9.a(interrupts.c.o)
 .text.irqInitHandler
                0x00000000       0x28 /opt/wonderful/thirdparty/blocksds/core/libs/libnds/lib/libnds9.a(interrupts.c.o)
 .text.irqDisable
                0x00000000       0x64 /opt/wonderful/thirdparty/blocksds/core/libs/libnds/lib/libnds9.a(interrupts.c.o)
 .text.irqClear
                0x00000000       0x40 /opt/wonderful/thirdparty/blocksds/core/libs/libnds/lib/libnds9.a(interrupts.c.o)
 .text          0x00000000        0x0 /opt/wonderful/thirdparty/blocksds/core/libs/libnds/lib/libnds9.a(libnds_exit.c.o)
 .data          0x00000000        0x0 /opt/wonderful/thirdparty/blocksds/core/libs/libnds/lib/libnds9.a(libnds_exit.c.o)
 .bss           0x00000000        0x0 /opt/wonderful/thirdparty/blocksds/core/libs/libnds/lib/libnds9.a(libnds_exit.c.o)
 .text          0x00000000        0x0 /opt/wonderful/thirdparty/blocksds/core/libs/libnds/lib/libnds9.a(card.c.o)
 .data          0x00000000        0x0 /opt/wonderful/thirdparty/blocksds/core/libs/libnds/lib/libnds9.a(card.c.o)
 .bss           0x00000000        0x0 /opt/wonderful/thirdparty/blocksds/core/libs/libnds/lib/libnds9.a(card.c.o)
 .text.cardWriteCommand
                0x00000000       0x28 /opt/wonderful/thirdparty/blocksds/core/libs/libnds/lib/libnds9.a(card.c.o)
 .text.cardStartTransfer
                0x00000000       0x68 /opt/wonderful/thirdparty/blocksds/core/libs/libnds/lib/libnds9.a(card.c.o)
 .text.cardWriteAndRead
                0x00000000       0x48 /opt/wonderful/thirdparty/blocksds/core/libs/libnds/lib/libnds9.a(card.c.o)
 .text.cardParamCommand
                0x00000000       0x34 /opt/wonderful/thirdparty/blocksds/core/libs/libnds/lib/libnds9.a(card.c.o)
 .text.cardReadID
                0x00000000       0x5c /opt/wonderful/thirdparty/blocksds/core/libs/libnds/lib/libnds9.a(card.c.o)
 .text.cardReset
                0x00000000       0x6c /opt/wonderful/thirdparty/blocksds/core/libs/libnds/lib/libnds9.a(card.c.o)
 .text.cardReadHeader
                0x00000000       0x9c /opt/wonderful/thirdparty/blocksds/core/libs/libnds/lib/libnds9.a(card.c.o)
 .rodata        0x00000000       0x10 /opt/wonderful/thirdparty/blocksds/core/libs/libnds/lib/libnds9.a(card.c.o)
 .text          0x00000000        0x0 /opt/wonderful/thirdparty/blocksds/core/libs/libnds/lib/libnds9.a(sbrk.c.o)
 .data          0x00000000        0x0 /opt/wonderful/thirdparty/blocksds/core/libs/libnds/lib/libnds9.a(sbrk.c.o)
 .bss           0x00000000        0x0 /opt/wonderful/thirdparty/blocksds/core/libs/libnds/lib/libnds9.a(sbrk.c.o)
 .text          0x00000000        0x0 /opt/wonderful/thirdparty/blocksds/core/libs/libnds/lib/libnds9.a(threads.c.o)
 .data          0x00000000        0x0 /opt/wonderful/thirdparty/blocksds/core/libs/libnds/lib/libnds9.a(threads.c.o)
 .bss           0x00000000        0x0 /opt/wonderful/thirdparty/blocksds/core/libs/libnds/lib/libnds9.a(threads.c.o)
 .text.init_tls
                0x00000000       0x28 /opt/wonderful/thirdparty/blocksds/core/libs/libnds/lib/libnds9.a(threads.c.o)
 .text.cothread_delete
                0x00000000       0x44 /opt/wonderful/thirdparty/blocksds/core/libs/libnds/lib/libnds9.a(threads.c.o)
 .text.cothread_create_manual
                0x00000000       0xd0 /opt/wonderful/thirdparty/blocksds/core/libs/libnds/lib/libnds9.a(threads.c.o)
 .text.cothread_create
                0x00000000       0x80 /opt/wonderful/thirdparty/blocksds/core/libs/libnds/lib/libnds9.a(threads.c.o)
 .text.cothread_detach
                0x00000000       0x38 /opt/wonderful/thirdparty/blocksds/core/libs/libnds/lib/libnds9.a(threads.c.o)
 .text.cothread_has_joined
                0x00000000       0x30 /opt/wonderful/thirdparty/blocksds/core/libs/libnds/lib/libnds9.a(threads.c.o)
 .text.cothread_get_exit_code
                0x00000000       0x3c /opt/wonderful/thirdparty/blocksds/core/libs/libnds/lib/libnds9.a(threads.c.o)
 .text.cothread_get_current
                0x00000000        0xc /opt/wonderful/thirdparty/blocksds/core/libs/libnds/lib/libnds9.a(threads.c.o)
 .text          0x00000000        0x0 /opt/wonderful/thirdparty/blocksds/core/libs/libnds/lib/libnds9.a(default_font.bin.o)
 .data          0x00000000        0x0 /opt/wonderful/thirdparty/blocksds/core/libs/libnds/lib/libnds9.a(default_font.bin.o)
 .bss           0x00000000        0x0 /opt/wonderful/thirdparty/blocksds/core/libs/libnds/lib/libnds9.a(default_font.bin.o)
 .text          0x00000000        0x0 /opt/wonderful/thirdparty/blocksds/core/libs/libnds/lib/libnds9.a(cpu_clock.s.o)
 .data          0x00000000        0x0 /opt/wonderful/thirdparty/blocksds/core/libs/libnds/lib/libnds9.a(cpu_clock.s.o)
 .bss           0x00000000        0x0 /opt/wonderful/thirdparty/blocksds/core/libs/libnds/lib/libnds9.a(cpu_clock.s.o)
 .text          0x00000000        0x0 /opt/wonderful/thirdparty/blocksds/core/libs/libnds/lib/libnds9.a(dldi_stub.s.o)
 .data          0x00000000        0x0 /opt/wonderful/thirdparty/blocksds/core/libs/libnds/lib/libnds9.a(dldi_stub.s.o)
 .bss           0x00000000        0x0 /opt/wonderful/thirdparty/blocksds/core/libs/libnds/lib/libnds9.a(dldi_stub.s.o)
 .text          0x00000000        0x0 /opt/wonderful/thirdparty/blocksds/core/libs/libnds/lib/libnds9.a(interruptDispatcher.s.o)
 .data          0x00000000        0x0 /opt/wonderful/thirdparty/blocksds/core/libs/libnds/lib/libnds9.a(interruptDispatcher.s.o)
 .bss           0x00000000        0x0 /opt/wonderful/thirdparty/blocksds/core/libs/libnds/lib/libnds9.a(interruptDispatcher.s.o)
 .text          0x00000000        0x0 /opt/wonderful/thirdparty/blocksds/core/libs/libnds/lib/libnds9.a(debugprint.s.o)
 .data          0x00000000        0x0 /opt/wonderful/thirdparty/blocksds/core/libs/libnds/lib/libnds9.a(debugprint.s.o)
 .bss           0x00000000        0x0 /opt/wonderful/thirdparty/blocksds/core/libs/libnds/lib/libnds9.a(debugprint.s.o)
 .text.nocashWrite
                0x00000000        0x4 /opt/wonderful/thirdparty/blocksds/core/libs/libnds/lib/libnds9.a(debugprint.s.o)
 .text.nocashMessage
                0x00000000       0xa4 /opt/wonderful/thirdparty/blocksds/core/libs/libnds/lib/libnds9.a(debugprint.s.o)
 .ARM.attributes
                0x00000000       0x1b /opt/wonderful/thirdparty/blocksds/core/libs/libnds/lib/libnds9.a(debugprint.s.o)
 .text          0x00000000        0x0 /opt/wonderful/thirdparty/blocksds/core/libs/libnds/lib/libnds9.a(coroutine.s.o)
 .data          0x00000000        0x0 /opt/wonderful/thirdparty/blocksds/core/libs/libnds/lib/libnds9.a(coroutine.s.o)
 .bss           0x00000000        0x0 /opt/wonderful/thirdparty/blocksds/core/libs/libnds/lib/libnds9.a(coroutine.s.o)
 .text.__ndsabi_coro_pop
                0x00000000       0x34 /opt/wonderful/thirdparty/blocksds/core/libs/libnds/lib/libnds9.a(coroutine.s.o)
 .text          0x00000000        0x0 /opt/wonderful/thirdparty/blocksds/core/libs/libnds/lib/libnds9.a(aeabi_read_tp.s.o)
 .data          0x00000000        0x0 /opt/wonderful/thirdparty/blocksds/core/libs/libnds/lib/libnds9.a(aeabi_read_tp.s.o)
 .bss           0x00000000        0x0 /opt/wonderful/thirdparty/blocksds/core/libs/libnds/lib/libnds9.a(aeabi_read_tp.s.o)
 .text          0x00000000        0x0 /opt/wonderful/thirdparty/blocksds/core/libs/libnds/lib/libnds9.a(background.c.o)
 .data          0x00000000        0x0 /opt/wonderful/thirdparty/blocksds/core/libs/libnds/lib/libnds9.a(background.c.o)
 .bss           0x00000000        0x0 /opt/wonderful/thirdparty/blocksds/core/libs/libnds/lib/libnds9.a(background.c.o)
 .text.bgIsText
                0x00000000        0xc /opt/wonderful/thirdparty/blocksds/core/libs/libnds/lib/libnds9.a(background.c.o)
 .text          0x00000000        0x0 /opt/wonderful/thirdparty/blocksds/core/libs/libnds/lib/libnds9.a(system.c.o)
 .data          0x00000000        0x0 /opt/wonderful/thirdparty/blocksds/core/libs/libnds/lib/libnds9.a(system.c.o)
 .bss           0x00000000        0x0 /opt/wonderful/thirdparty/blocksds/core/libs/libnds/lib/libnds9.a(system.c.o)
 .text.setSDcallback
                0x00000000        0xc /opt/wonderful/thirdparty/blocksds/core/libs/libnds/lib/libnds9.a(system.c.o)
 .text.systemSleep
                0x00000000       0x18 /opt/wonderful/thirdparty/blocksds/core/libs/libnds/lib/libnds9.a(system.c.o)
 .text.enableSleep
                0x00000000       0x10 /opt/wonderful/thirdparty/blocksds/core/libs/libnds/lib/libnds9.a(system.c.o)
 .text.disableSleep
                0x00000000       0x10 /opt/wonderful/thirdparty/blocksds/core/libs/libnds/lib/libnds9.a(system.c.o)
 .text.powerOff
                0x00000000       0x28 /opt/wonderful/thirdparty/blocksds/core/libs/libnds/lib/libnds9.a(system.c.o)
 .text.ledBlink
                0x00000000       0x10 /opt/wonderful/thirdparty/blocksds/core/libs/libnds/lib/libnds9.a(system.c.o)
 .text.getBatteryLevel
                0x00000000       0x2c /opt/wonderful/thirdparty/blocksds/core/libs/libnds/lib/libnds9.a(system.c.o)
 .text.enableSlot1
                0x00000000       0x1c /opt/wonderful/thirdparty/blocksds/core/libs/libnds/lib/libnds9.a(system.c.o)
 .text.disableSlot1
                0x00000000       0x1c /opt/wonderful/thirdparty/blocksds/core/libs/libnds/lib/libnds9.a(system.c.o)
 .text          0x00000000        0x0 /opt/wonderful/thirdparty/blocksds/core/libs/libnds/lib/libnds9.a(keyboard.c.o)
 .data          0x00000000        0x0 /opt/wonderful/thirdparty/blocksds/core/libs/libnds/lib/libnds9.a(keyboard.c.o)
 .bss           0x00000000        0x0 /opt/wonderful/thirdparty/blocksds/core/libs/libnds/lib/libnds9.a(keyboard.c.o)
 .text.keyboardGetChar.part.0
                0x00000000       0x34 /opt/wonderful/thirdparty/blocksds/core/libs/libnds/lib/libnds9.a(keyboard.c.o)
 .text.keyboardGetDefault
                0x00000000        0x8 /opt/wonderful/thirdparty/blocksds/core/libs/libnds/lib/libnds9.a(keyboard.c.o)
 .text.keyboardInit
                0x00000000      0x1f4 /opt/wonderful/thirdparty/blocksds/core/libs/libnds/lib/libnds9.a(keyboard.c.o)
 .text.keyboardDemoInit
                0x00000000       0x2c /opt/wonderful/thirdparty/blocksds/core/libs/libnds/lib/libnds9.a(keyboard.c.o)
 .text.keyboardGetChar
                0x00000000       0x18 /opt/wonderful/thirdparty/blocksds/core/libs/libnds/lib/libnds9.a(keyboard.c.o)
 .text.keyboardGetString
                0x00000000       0x40 /opt/wonderful/thirdparty/blocksds/core/libs/libnds/lib/libnds9.a(keyboard.c.o)
 .data.defaultKeyboard
                0x00000000       0x5c /opt/wonderful/thirdparty/blocksds/core/libs/libnds/lib/libnds9.a(keyboard.c.o)
 .data.lowerCase
                0x00000000       0x14 /opt/wonderful/thirdparty/blocksds/core/libs/libnds/lib/libnds9.a(keyboard.c.o)
 .data.capsLock
                0x00000000       0x14 /opt/wonderful/thirdparty/blocksds/core/libs/libnds/lib/libnds9.a(keyboard.c.o)
 .rodata.SimpleKbdUpper
                0x00000000      0x140 /opt/wonderful/thirdparty/blocksds/core/libs/libnds/lib/libnds9.a(keyboard.c.o)
 .rodata.SimpleKbdLower
                0x00000000      0x140 /opt/wonderful/thirdparty/blocksds/core/libs/libnds/lib/libnds9.a(keyboard.c.o)
 .text          0x00000000        0x0 /opt/wonderful/thirdparty/blocksds/core/libs/libnds/lib/libnds9.a(decompress.c.o)
 .data          0x00000000        0x0 /opt/wonderful/thirdparty/blocksds/core/libs/libnds/lib/libnds9.a(decompress.c.o)
 .bss           0x00000000        0x0 /opt/wonderful/thirdparty/blocksds/core/libs/libnds/lib/libnds9.a(decompress.c.o)
 .text.getHeader
                0x00000000        0x4 /opt/wonderful/thirdparty/blocksds/core/libs/libnds/lib/libnds9.a(decompress.c.o)
 .text.readByte
                0x00000000        0x4 /opt/wonderful/thirdparty/blocksds/core/libs/libnds/lib/libnds9.a(decompress.c.o)
 .text.decompress
                0x00000000       0x38 /opt/wonderful/thirdparty/blocksds/core/libs/libnds/lib/libnds9.a(decompress.c.o)
 .rodata.decompress
                0x00000000       0x14 /opt/wonderful/thirdparty/blocksds/core/libs/libnds/lib/libnds9.a(decompress.c.o)
 .text.decompressStream
                0x00000000       0x38 /opt/wonderful/thirdparty/blocksds/core/libs/libnds/lib/libnds9.a(decompress.c.o)
 .data.decomStream
                0x00000000        0xc /opt/wonderful/thirdparty/blocksds/core/libs/libnds/lib/libnds9.a(decompress.c.o)
 .comment       0x00000000       0x23 /opt/wonderful/thirdparty/blocksds/core/libs/libnds/lib/libnds9.a(decompress.c.o)
 .ARM.attributes
                0x00000000       0x2b /opt/wonderful/thirdparty/blocksds/core/libs/libnds/lib/libnds9.a(decompress.c.o)
 .text          0x00000000        0x0 /opt/wonderful/thirdparty/blocksds/core/libs/libnds/lib/libnds9.a(coroutine.c.o)
 .data          0x00000000        0x0 /opt/wonderful/thirdparty/blocksds/core/libs/libnds/lib/libnds9.a(coroutine.c.o)
 .bss           0x00000000        0x0 /opt/wonderful/thirdparty/blocksds/core/libs/libnds/lib/libnds9.a(coroutine.c.o)
 .text.__ndsabi_coro_make
                0x00000000       0x24 /opt/wonderful/thirdparty/blocksds/core/libs/libnds/lib/libnds9.a(coroutine.c.o)
 .text          0x00000000        0x0 /opt/wonderful/thirdparty/blocksds/core/libs/libnds/lib/libnds9.a(syscalls.c.o)
 .data          0x00000000        0x0 /opt/wonderful/thirdparty/blocksds/core/libs/libnds/lib/libnds9.a(syscalls.c.o)
 .bss           0x00000000        0x0 /opt/wonderful/thirdparty/blocksds/core/libs/libnds/lib/libnds9.a(syscalls.c.o)
 .text.swiDecompressLZSSVram
                0x00000000       0x18 /opt/wonderful/thirdparty/blocksds/core/libs/libnds/lib/libnds9.a(syscalls.c.o)
 .comment       0x00000000       0x23 /opt/wonderful/thirdparty/blocksds/core/libs/libnds/lib/libnds9.a(syscalls.c.o)
 .ARM.attributes
                0x00000000       0x2b /opt/wonderful/thirdparty/blocksds/core/libs/libnds/lib/libnds9.a(syscalls.c.o)
 .text          0x00000000        0x0 /opt/wonderful/thirdparty/blocksds/core/libs/libnds/lib/libnds9.a(keyboardGfx.png.o)
 .data          0x00000000        0x0 /opt/wonderful/thirdparty/blocksds/core/libs/libnds/lib/libnds9.a(keyboardGfx.png.o)
 .bss           0x00000000        0x0 /opt/wonderful/thirdparty/blocksds/core/libs/libnds/lib/libnds9.a(keyboardGfx.png.o)
 .rodata.keyboardGfxPal
                0x00000000       0x20 /opt/wonderful/thirdparty/blocksds/core/libs/libnds/lib/libnds9.a(keyboardGfx.png.o)
 .rodata.keyboardGfxMap
                0x00000000      0xa00 /opt/wonderful/thirdparty/blocksds/core/libs/libnds/lib/libnds9.a(keyboardGfx.png.o)
 .rodata.keyboardGfxTiles
                0x00000000     0x2214 /opt/wonderful/thirdparty/blocksds/core/libs/libnds/lib/libnds9.a(keyboardGfx.png.o)
 .comment       0x00000000       0x23 /opt/wonderful/thirdparty/blocksds/core/libs/libnds/lib/libnds9.a(keyboardGfx.png.o)
 .ARM.attributes
                0x00000000       0x2b /opt/wonderful/thirdparty/blocksds/core/libs/libnds/lib/libnds9.a(keyboardGfx.png.o)
 .data          0x00000000        0x0 /opt/wonderful/toolchain/gcc-arm-none-eabi/lib/gcc/arm-none-eabi/13.2.0/../../../../arm-none-eabi/lib/libc.a(strcmp.S.o)
 .bss           0x00000000        0x0 /opt/wonderful/toolchain/gcc-arm-none-eabi/lib/gcc/arm-none-eabi/13.2.0/../../../../arm-none-eabi/lib/libc.a(strcmp.S.o)
 .data          0x00000000        0x0 /opt/wonderful/toolchain/gcc-arm-none-eabi/lib/gcc/arm-none-eabi/13.2.0/../../../../arm-none-eabi/lib/libc.a(strlen.S.o)
 .bss           0x00000000        0x0 /opt/wonderful/toolchain/gcc-arm-none-eabi/lib/gcc/arm-none-eabi/13.2.0/../../../../arm-none-eabi/lib/libc.a(strlen.S.o)
 .text          0x00000000        0x0 /opt/wonderful/toolchain/gcc-arm-none-eabi/lib/gcc/arm-none-eabi/13.2.0/../../../../arm-none-eabi/lib/libc.a(malloc-calloc.c.o)
 .data          0x00000000        0x0 /opt/wonderful/toolchain/gcc-arm-none-eabi/lib/gcc/arm-none-eabi/13.2.0/../../../../arm-none-eabi/lib/libc.a(malloc-calloc.c.o)
 .bss           0x00000000        0x0 /opt/wonderful/toolchain/gcc-arm-none-eabi/lib/gcc/arm-none-eabi/13.2.0/../../../../arm-none-eabi/lib/libc.a(malloc-calloc.c.o)
 .text          0x00000000        0x0 /opt/wonderful/toolchain/gcc-arm-none-eabi/lib/gcc/arm-none-eabi/13.2.0/../../../../arm-none-eabi/lib/libc.a(malloc-free.c.o)
 .data          0x00000000        0x0 /opt/wonderful/toolchain/gcc-arm-none-eabi/lib/gcc/arm-none-eabi/13.2.0/../../../../arm-none-eabi/lib/libc.a(malloc-free.c.o)
 .bss           0x00000000        0x0 /opt/wonderful/toolchain/gcc-arm-none-eabi/lib/gcc/arm-none-eabi/13.2.0/../../../../arm-none-eabi/lib/libc.a(malloc-free.c.o)
 .text          0x00000000        0x0 /opt/wonderful/toolchain/gcc-arm-none-eabi/lib/gcc/arm-none-eabi/13.2.0/../../../../arm-none-eabi/lib/libc.a(malloc-malloc.c.o)
 .text          0x00000000        0x0 /opt/wonderful/toolchain/gcc-arm-none-eabi/lib/gcc/arm-none-eabi/13.2.0/../../../../arm-none-eabi/lib/libc.a(malloc-memalign.c.o)
 .data          0x00000000        0x0 /opt/wonderful/toolchain/gcc-arm-none-eabi/lib/gcc/arm-none-eabi/13.2.0/../../../../arm-none-eabi/lib/libc.a(malloc-memalign.c.o)
 .bss           0x00000000        0x0 /opt/wonderful/toolchain/gcc-arm-none-eabi/lib/gcc/arm-none-eabi/13.2.0/../../../../arm-none-eabi/lib/libc.a(malloc-memalign.c.o)
 .text.memalign
                0x00000000       0xe4 /opt/wonderful/toolchain/gcc-arm-none-eabi/lib/gcc/arm-none-eabi/13.2.0/../../../../arm-none-eabi/lib/libc.a(malloc-memalign.c.o)
 .debug_info    0x00000000      0x2f6 /opt/wonderful/toolchain/gcc-arm-none-eabi/lib/gcc/arm-none-eabi/13.2.0/../../../../arm-none-eabi/lib/libc.a(malloc-memalign.c.o)
 .debug_abbrev  0x00000000      0x187 /opt/wonderful/toolchain/gcc-arm-none-eabi/lib/gcc/arm-none-eabi/13.2.0/../../../../arm-none-eabi/lib/libc.a(malloc-memalign.c.o)
 .debug_loclists
                0x00000000      0x138 /opt/wonderful/toolchain/gcc-arm-none-eabi/lib/gcc/arm-none-eabi/13.2.0/../../../../arm-none-eabi/lib/libc.a(malloc-memalign.c.o)
 .debug_aranges
                0x00000000       0x20 /opt/wonderful/toolchain/gcc-arm-none-eabi/lib/gcc/arm-none-eabi/13.2.0/../../../../arm-none-eabi/lib/libc.a(malloc-memalign.c.o)
 .debug_rnglists
                0x00000000       0x14 /opt/wonderful/toolchain/gcc-arm-none-eabi/lib/gcc/arm-none-eabi/13.2.0/../../../../arm-none-eabi/lib/libc.a(malloc-memalign.c.o)
 .debug_line    0x00000000      0x27c /opt/wonderful/toolchain/gcc-arm-none-eabi/lib/gcc/arm-none-eabi/13.2.0/../../../../arm-none-eabi/lib/libc.a(malloc-memalign.c.o)
 .debug_str     0x00000000      0x350 /opt/wonderful/toolchain/gcc-arm-none-eabi/lib/gcc/arm-none-eabi/13.2.0/../../../../arm-none-eabi/lib/libc.a(malloc-memalign.c.o)
 .comment       0x00000000       0x23 /opt/wonderful/toolchain/gcc-arm-none-eabi/lib/gcc/arm-none-eabi/13.2.0/../../../../arm-none-eabi/lib/libc.a(malloc-memalign.c.o)
 .debug_frame   0x00000000       0x34 /opt/wonderful/toolchain/gcc-arm-none-eabi/lib/gcc/arm-none-eabi/13.2.0/../../../../arm-none-eabi/lib/libc.a(malloc-memalign.c.o)
 .ARM.attributes
                0x00000000       0x2e /opt/wonderful/toolchain/gcc-arm-none-eabi/lib/gcc/arm-none-eabi/13.2.0/../../../../arm-none-eabi/lib/libc.a(malloc-memalign.c.o)
 .text          0x00000000        0x0 /opt/wonderful/toolchain/gcc-arm-none-eabi/lib/gcc/arm-none-eabi/13.2.0/../../../../arm-none-eabi/lib/libc.a(malloc-realloc.c.o)
 .data          0x00000000        0x0 /opt/wonderful/toolchain/gcc-arm-none-eabi/lib/gcc/arm-none-eabi/13.2.0/../../../../arm-none-eabi/lib/libc.a(malloc-realloc.c.o)
 .bss           0x00000000        0x0 /opt/wonderful/toolchain/gcc-arm-none-eabi/lib/gcc/arm-none-eabi/13.2.0/../../../../arm-none-eabi/lib/libc.a(malloc-realloc.c.o)
 .text          0x00000000        0x0 /opt/wonderful/toolchain/gcc-arm-none-eabi/lib/gcc/arm-none-eabi/13.2.0/../../../../arm-none-eabi/lib/libc.a(libc_errno_errno.c.o)
 .data          0x00000000        0x0 /opt/wonderful/toolchain/gcc-arm-none-eabi/lib/gcc/arm-none-eabi/13.2.0/../../../../arm-none-eabi/lib/libc.a(libc_errno_errno.c.o)
 .bss           0x00000000        0x0 /opt/wonderful/toolchain/gcc-arm-none-eabi/lib/gcc/arm-none-eabi/13.2.0/../../../../arm-none-eabi/lib/libc.a(libc_errno_errno.c.o)
 .text          0x00000000        0x0 /opt/wonderful/toolchain/gcc-arm-none-eabi/lib/gcc/arm-none-eabi/13.2.0/../../../../arm-none-eabi/lib/libc.a(libc_misc_init.c.o)
 .data          0x00000000        0x0 /opt/wonderful/toolchain/gcc-arm-none-eabi/lib/gcc/arm-none-eabi/13.2.0/../../../../arm-none-eabi/lib/libc.a(libc_misc_init.c.o)
 .bss           0x00000000        0x0 /opt/wonderful/toolchain/gcc-arm-none-eabi/lib/gcc/arm-none-eabi/13.2.0/../../../../arm-none-eabi/lib/libc.a(libc_misc_init.c.o)
 .text          0x00000000        0x0 /opt/wonderful/toolchain/gcc-arm-none-eabi/lib/gcc/arm-none-eabi/13.2.0/../../../../arm-none-eabi/lib/libc.a(libc_misc_lock.c.o)
 .data          0x00000000        0x0 /opt/wonderful/toolchain/gcc-arm-none-eabi/lib/gcc/arm-none-eabi/13.2.0/../../../../arm-none-eabi/lib/libc.a(libc_misc_lock.c.o)
 .text.__retarget_lock_init_recursive
                0x00000000        0x2 /opt/wonderful/toolchain/gcc-arm-none-eabi/lib/gcc/arm-none-eabi/13.2.0/../../../../arm-none-eabi/lib/libc.a(libc_misc_lock.c.o)
 .text.__retarget_lock_close_recursive
                0x00000000        0x2 /opt/wonderful/toolchain/gcc-arm-none-eabi/lib/gcc/arm-none-eabi/13.2.0/../../../../arm-none-eabi/lib/libc.a(libc_misc_lock.c.o)
 .text          0x00000000        0x0 /opt/wonderful/toolchain/gcc-arm-none-eabi/lib/gcc/arm-none-eabi/13.2.0/../../../../arm-none-eabi/lib/libc.a(libc_search_bsearch.c.o)
 .data          0x00000000        0x0 /opt/wonderful/toolchain/gcc-arm-none-eabi/lib/gcc/arm-none-eabi/13.2.0/../../../../arm-none-eabi/lib/libc.a(libc_search_bsearch.c.o)
 .bss           0x00000000        0x0 /opt/wonderful/toolchain/gcc-arm-none-eabi/lib/gcc/arm-none-eabi/13.2.0/../../../../arm-none-eabi/lib/libc.a(libc_search_bsearch.c.o)
 .text.bsearch  0x00000000       0x48 /opt/wonderful/toolchain/gcc-arm-none-eabi/lib/gcc/arm-none-eabi/13.2.0/../../../../arm-none-eabi/lib/libc.a(libc_search_bsearch.c.o)
 .debug_info    0x00000000      0x18e /opt/wonderful/toolchain/gcc-arm-none-eabi/lib/gcc/arm-none-eabi/13.2.0/../../../../arm-none-eabi/lib/libc.a(libc_search_bsearch.c.o)
 .debug_abbrev  0x00000000       0xe0 /opt/wonderful/toolchain/gcc-arm-none-eabi/lib/gcc/arm-none-eabi/13.2.0/../../../../arm-none-eabi/lib/libc.a(libc_search_bsearch.c.o)
 .debug_loclists
                0x00000000       0xdb /opt/wonderful/toolchain/gcc-arm-none-eabi/lib/gcc/arm-none-eabi/13.2.0/../../../../arm-none-eabi/lib/libc.a(libc_search_bsearch.c.o)
 .debug_aranges
                0x00000000       0x20 /opt/wonderful/toolchain/gcc-arm-none-eabi/lib/gcc/arm-none-eabi/13.2.0/../../../../arm-none-eabi/lib/libc.a(libc_search_bsearch.c.o)
 .debug_rnglists
                0x00000000       0x13 /opt/wonderful/toolchain/gcc-arm-none-eabi/lib/gcc/arm-none-eabi/13.2.0/../../../../arm-none-eabi/lib/libc.a(libc_search_bsearch.c.o)
 .debug_line    0x00000000      0x127 /opt/wonderful/toolchain/gcc-arm-none-eabi/lib/gcc/arm-none-eabi/13.2.0/../../../../arm-none-eabi/lib/libc.a(libc_search_bsearch.c.o)
 .debug_str     0x00000000      0x23c /opt/wonderful/toolchain/gcc-arm-none-eabi/lib/gcc/arm-none-eabi/13.2.0/../../../../arm-none-eabi/lib/libc.a(libc_search_bsearch.c.o)
 .comment       0x00000000       0x23 /opt/wonderful/toolchain/gcc-arm-none-eabi/lib/gcc/arm-none-eabi/13.2.0/../../../../arm-none-eabi/lib/libc.a(libc_search_bsearch.c.o)
 .debug_frame   0x00000000       0x30 /opt/wonderful/toolchain/gcc-arm-none-eabi/lib/gcc/arm-none-eabi/13.2.0/../../../../arm-none-eabi/lib/libc.a(libc_search_bsearch.c.o)
 .ARM.attributes
                0x00000000       0x2e /opt/wonderful/toolchain/gcc-arm-none-eabi/lib/gcc/arm-none-eabi/13.2.0/../../../../arm-none-eabi/lib/libc.a(libc_search_bsearch.c.o)
 .text          0x00000000        0x0 /opt/wonderful/toolchain/gcc-arm-none-eabi/lib/gcc/arm-none-eabi/13.2.0/../../../../arm-none-eabi/lib/libc.a(libc_stdlib_pico-exit.c.o)
 .data          0x00000000        0x0 /opt/wonderful/toolchain/gcc-arm-none-eabi/lib/gcc/arm-none-eabi/13.2.0/../../../../arm-none-eabi/lib/libc.a(libc_stdlib_pico-exit.c.o)
 .bss           0x00000000        0x0 /opt/wonderful/toolchain/gcc-arm-none-eabi/lib/gcc/arm-none-eabi/13.2.0/../../../../arm-none-eabi/lib/libc.a(libc_stdlib_pico-exit.c.o)
 .text          0x00000000        0x0 /opt/wonderful/toolchain/gcc-arm-none-eabi/lib/gcc/arm-none-eabi/13.2.0/../../../../arm-none-eabi/lib/libc.a(libc_string_memcmp.c.o)
 .data          0x00000000        0x0 /opt/wonderful/toolchain/gcc-arm-none-eabi/lib/gcc/arm-none-eabi/13.2.0/../../../../arm-none-eabi/lib/libc.a(libc_string_memcmp.c.o)
 .bss           0x00000000        0x0 /opt/wonderful/toolchain/gcc-arm-none-eabi/lib/gcc/arm-none-eabi/13.2.0/../../../../arm-none-eabi/lib/libc.a(libc_string_memcmp.c.o)
 .text          0x00000000        0x0 /opt/wonderful/toolchain/gcc-arm-none-eabi/lib/gcc/arm-none-eabi/13.2.0/../../../../arm-none-eabi/lib/libc.a(libc_string_strchr.c.o)
 .data          0x00000000        0x0 /opt/wonderful/toolchain/gcc-arm-none-eabi/lib/gcc/arm-none-eabi/13.2.0/../../../../arm-none-eabi/lib/libc.a(libc_string_strchr.c.o)
 .bss           0x00000000        0x0 /opt/wonderful/toolchain/gcc-arm-none-eabi/lib/gcc/arm-none-eabi/13.2.0/../../../../arm-none-eabi/lib/libc.a(libc_string_strchr.c.o)
 .text          0x00000000        0x0 /opt/wonderful/toolchain/gcc-arm-none-eabi/lib/gcc/arm-none-eabi/13.2.0/../../../../arm-none-eabi/lib/libc.a(libc_string_strdup.c.o)
 .data          0x00000000        0x0 /opt/wonderful/toolchain/gcc-arm-none-eabi/lib/gcc/arm-none-eabi/13.2.0/../../../../arm-none-eabi/lib/libc.a(libc_string_strdup.c.o)
 .bss           0x00000000        0x0 /opt/wonderful/toolchain/gcc-arm-none-eabi/lib/gcc/arm-none-eabi/13.2.0/../../../../arm-none-eabi/lib/libc.a(libc_string_strdup.c.o)
 .text          0x00000000        0x0 /opt/wonderful/toolchain/gcc-arm-none-eabi/lib/gcc/arm-none-eabi/13.2.0/../../../../arm-none-eabi/lib/libc.a(libc_string_strncmp.c.o)
 .data          0x00000000        0x0 /opt/wonderful/toolchain/gcc-arm-none-eabi/lib/gcc/arm-none-eabi/13.2.0/../../../../arm-none-eabi/lib/libc.a(libc_string_strncmp.c.o)
 .bss           0x00000000        0x0 /opt/wonderful/toolchain/gcc-arm-none-eabi/lib/gcc/arm-none-eabi/13.2.0/../../../../arm-none-eabi/lib/libc.a(libc_string_strncmp.c.o)
 .text          0x00000000        0x0 /opt/wonderful/toolchain/gcc-arm-none-eabi/lib/gcc/arm-none-eabi/13.2.0/../../../../arm-none-eabi/lib/libc.a(libc_string_strncpy.c.o)
 .data          0x00000000        0x0 /opt/wonderful/toolchain/gcc-arm-none-eabi/lib/gcc/arm-none-eabi/13.2.0/../../../../arm-none-eabi/lib/libc.a(libc_string_strncpy.c.o)
 .bss           0x00000000        0x0 /opt/wonderful/toolchain/gcc-arm-none-eabi/lib/gcc/arm-none-eabi/13.2.0/../../../../arm-none-eabi/lib/libc.a(libc_string_strncpy.c.o)
 .text.strncpy  0x00000000       0x26 /opt/wonderful/toolchain/gcc-arm-none-eabi/lib/gcc/arm-none-eabi/13.2.0/../../../../arm-none-eabi/lib/libc.a(libc_string_strncpy.c.o)
 .debug_info    0x00000000      0x134 /opt/wonderful/toolchain/gcc-arm-none-eabi/lib/gcc/arm-none-eabi/13.2.0/../../../../arm-none-eabi/lib/libc.a(libc_string_strncpy.c.o)
 .debug_abbrev  0x00000000       0xbb /opt/wonderful/toolchain/gcc-arm-none-eabi/lib/gcc/arm-none-eabi/13.2.0/../../../../arm-none-eabi/lib/libc.a(libc_string_strncpy.c.o)
 .debug_loclists
                0x00000000       0xf3 /opt/wonderful/toolchain/gcc-arm-none-eabi/lib/gcc/arm-none-eabi/13.2.0/../../../../arm-none-eabi/lib/libc.a(libc_string_strncpy.c.o)
 .debug_aranges
                0x00000000       0x20 /opt/wonderful/toolchain/gcc-arm-none-eabi/lib/gcc/arm-none-eabi/13.2.0/../../../../arm-none-eabi/lib/libc.a(libc_string_strncpy.c.o)
 .debug_rnglists
                0x00000000       0x13 /opt/wonderful/toolchain/gcc-arm-none-eabi/lib/gcc/arm-none-eabi/13.2.0/../../../../arm-none-eabi/lib/libc.a(libc_string_strncpy.c.o)
 .debug_line    0x00000000      0x103 /opt/wonderful/toolchain/gcc-arm-none-eabi/lib/gcc/arm-none-eabi/13.2.0/../../../../arm-none-eabi/lib/libc.a(libc_string_strncpy.c.o)
 .debug_str     0x00000000      0x23d /opt/wonderful/toolchain/gcc-arm-none-eabi/lib/gcc/arm-none-eabi/13.2.0/../../../../arm-none-eabi/lib/libc.a(libc_string_strncpy.c.o)
 .comment       0x00000000       0x23 /opt/wonderful/toolchain/gcc-arm-none-eabi/lib/gcc/arm-none-eabi/13.2.0/../../../../arm-none-eabi/lib/libc.a(libc_string_strncpy.c.o)
 .debug_frame   0x00000000       0x2c /opt/wonderful/toolchain/gcc-arm-none-eabi/lib/gcc/arm-none-eabi/13.2.0/../../../../arm-none-eabi/lib/libc.a(libc_string_strncpy.c.o)
 .ARM.attributes
                0x00000000       0x2e /opt/wonderful/toolchain/gcc-arm-none-eabi/lib/gcc/arm-none-eabi/13.2.0/../../../../arm-none-eabi/lib/libc.a(libc_string_strncpy.c.o)
 .text          0x00000000        0x0 /opt/wonderful/toolchain/gcc-arm-none-eabi/lib/gcc/arm-none-eabi/13.2.0/../../../../arm-none-eabi/lib/libc.a(libc_string_strstr.c.o)
 .data          0x00000000        0x0 /opt/wonderful/toolchain/gcc-arm-none-eabi/lib/gcc/arm-none-eabi/13.2.0/../../../../arm-none-eabi/lib/libc.a(libc_string_strstr.c.o)
 .bss           0x00000000        0x0 /opt/wonderful/toolchain/gcc-arm-none-eabi/lib/gcc/arm-none-eabi/13.2.0/../../../../arm-none-eabi/lib/libc.a(libc_string_strstr.c.o)
 .text          0x00000000        0x0 /opt/wonderful/toolchain/gcc-arm-none-eabi/lib/gcc/arm-none-eabi/13.2.0/../../../../arm-none-eabi/lib/libc.a(libc_time_lcltime.c.o)
 .data          0x00000000        0x0 /opt/wonderful/toolchain/gcc-arm-none-eabi/lib/gcc/arm-none-eabi/13.2.0/../../../../arm-none-eabi/lib/libc.a(libc_time_lcltime.c.o)
 .bss           0x00000000        0x0 /opt/wonderful/toolchain/gcc-arm-none-eabi/lib/gcc/arm-none-eabi/13.2.0/../../../../arm-none-eabi/lib/libc.a(libc_time_lcltime.c.o)
 .text          0x00000000        0x0 /opt/wonderful/toolchain/gcc-arm-none-eabi/lib/gcc/arm-none-eabi/13.2.0/../../../../arm-none-eabi/lib/libc.a(libc_time_lcltime_r.c.o)
 .data          0x00000000        0x0 /opt/wonderful/toolchain/gcc-arm-none-eabi/lib/gcc/arm-none-eabi/13.2.0/../../../../arm-none-eabi/lib/libc.a(libc_time_lcltime_r.c.o)
 .bss           0x00000000        0x0 /opt/wonderful/toolchain/gcc-arm-none-eabi/lib/gcc/arm-none-eabi/13.2.0/../../../../arm-none-eabi/lib/libc.a(libc_time_lcltime_r.c.o)
 .text          0x00000000        0x0 /opt/wonderful/toolchain/gcc-arm-none-eabi/lib/gcc/arm-none-eabi/13.2.0/../../../../arm-none-eabi/lib/libc.a(libc_time_lcltime_buf.c.o)
 .data          0x00000000        0x0 /opt/wonderful/toolchain/gcc-arm-none-eabi/lib/gcc/arm-none-eabi/13.2.0/../../../../arm-none-eabi/lib/libc.a(libc_time_lcltime_buf.c.o)
 .bss           0x00000000        0x0 /opt/wonderful/toolchain/gcc-arm-none-eabi/lib/gcc/arm-none-eabi/13.2.0/../../../../arm-none-eabi/lib/libc.a(libc_time_lcltime_buf.c.o)
 .text          0x00000000        0x0 /opt/wonderful/toolchain/gcc-arm-none-eabi/lib/gcc/arm-none-eabi/13.2.0/../../../../arm-none-eabi/lib/libc.a(libc_time_mktime.c.o)
 .data          0x00000000        0x0 /opt/wonderful/toolchain/gcc-arm-none-eabi/lib/gcc/arm-none-eabi/13.2.0/../../../../arm-none-eabi/lib/libc.a(libc_time_mktime.c.o)
 .bss           0x00000000        0x0 /opt/wonderful/toolchain/gcc-arm-none-eabi/lib/gcc/arm-none-eabi/13.2.0/../../../../arm-none-eabi/lib/libc.a(libc_time_mktime.c.o)
 .text.isleap   0x00000000       0x2c /opt/wonderful/toolchain/gcc-arm-none-eabi/lib/gcc/arm-none-eabi/13.2.0/../../../../arm-none-eabi/lib/libc.a(libc_time_mktime.c.o)
 .text.validate_structure
                0x00000000      0x144 /opt/wonderful/toolchain/gcc-arm-none-eabi/lib/gcc/arm-none-eabi/13.2.0/../../../../arm-none-eabi/lib/libc.a(libc_time_mktime.c.o)
 .text.mktime_utc
                0x00000000       0xcc /opt/wonderful/toolchain/gcc-arm-none-eabi/lib/gcc/arm-none-eabi/13.2.0/../../../../arm-none-eabi/lib/libc.a(libc_time_mktime.c.o)
 .text.mktime   0x00000000      0x214 /opt/wonderful/toolchain/gcc-arm-none-eabi/lib/gcc/arm-none-eabi/13.2.0/../../../../arm-none-eabi/lib/libc.a(libc_time_mktime.c.o)
 .text.timegm   0x00000000       0x38 /opt/wonderful/toolchain/gcc-arm-none-eabi/lib/gcc/arm-none-eabi/13.2.0/../../../../arm-none-eabi/lib/libc.a(libc_time_mktime.c.o)
 .rodata        0x00000000       0x18 /opt/wonderful/toolchain/gcc-arm-none-eabi/lib/gcc/arm-none-eabi/13.2.0/../../../../arm-none-eabi/lib/libc.a(libc_time_mktime.c.o)
 .debug_info    0x00000000      0x7fe /opt/wonderful/toolchain/gcc-arm-none-eabi/lib/gcc/arm-none-eabi/13.2.0/../../../../arm-none-eabi/lib/libc.a(libc_time_mktime.c.o)
 .debug_abbrev  0x00000000      0x323 /opt/wonderful/toolchain/gcc-arm-none-eabi/lib/gcc/arm-none-eabi/13.2.0/../../../../arm-none-eabi/lib/libc.a(libc_time_mktime.c.o)
 .debug_loclists
                0x00000000      0x677 /opt/wonderful/toolchain/gcc-arm-none-eabi/lib/gcc/arm-none-eabi/13.2.0/../../../../arm-none-eabi/lib/libc.a(libc_time_mktime.c.o)
 .debug_aranges
                0x00000000       0x40 /opt/wonderful/toolchain/gcc-arm-none-eabi/lib/gcc/arm-none-eabi/13.2.0/../../../../arm-none-eabi/lib/libc.a(libc_time_mktime.c.o)
 .debug_rnglists
                0x00000000       0x90 /opt/wonderful/toolchain/gcc-arm-none-eabi/lib/gcc/arm-none-eabi/13.2.0/../../../../arm-none-eabi/lib/libc.a(libc_time_mktime.c.o)
 .debug_line    0x00000000      0x752 /opt/wonderful/toolchain/gcc-arm-none-eabi/lib/gcc/arm-none-eabi/13.2.0/../../../../arm-none-eabi/lib/libc.a(libc_time_mktime.c.o)
 .debug_str     0x00000000      0x469 /opt/wonderful/toolchain/gcc-arm-none-eabi/lib/gcc/arm-none-eabi/13.2.0/../../../../arm-none-eabi/lib/libc.a(libc_time_mktime.c.o)
 .comment       0x00000000       0x23 /opt/wonderful/toolchain/gcc-arm-none-eabi/lib/gcc/arm-none-eabi/13.2.0/../../../../arm-none-eabi/lib/libc.a(libc_time_mktime.c.o)
 .debug_frame   0x00000000       0xb0 /opt/wonderful/toolchain/gcc-arm-none-eabi/lib/gcc/arm-none-eabi/13.2.0/../../../../arm-none-eabi/lib/libc.a(libc_time_mktime.c.o)
 .ARM.attributes
                0x00000000       0x2e /opt/wonderful/toolchain/gcc-arm-none-eabi/lib/gcc/arm-none-eabi/13.2.0/../../../../arm-none-eabi/lib/libc.a(libc_time_mktime.c.o)
 .text          0x00000000        0x0 /opt/wonderful/toolchain/gcc-arm-none-eabi/lib/gcc/arm-none-eabi/13.2.0/../../../../arm-none-eabi/lib/libc.a(libc_time_month_lengths.c.o)
 .data          0x00000000        0x0 /opt/wonderful/toolchain/gcc-arm-none-eabi/lib/gcc/arm-none-eabi/13.2.0/../../../../arm-none-eabi/lib/libc.a(libc_time_month_lengths.c.o)
 .bss           0x00000000        0x0 /opt/wonderful/toolchain/gcc-arm-none-eabi/lib/gcc/arm-none-eabi/13.2.0/../../../../arm-none-eabi/lib/libc.a(libc_time_month_lengths.c.o)
 .text          0x00000000        0x0 /opt/wonderful/toolchain/gcc-arm-none-eabi/lib/gcc/arm-none-eabi/13.2.0/../../../../arm-none-eabi/lib/libc.a(libc_time_time.c.o)
 .data          0x00000000        0x0 /opt/wonderful/toolchain/gcc-arm-none-eabi/lib/gcc/arm-none-eabi/13.2.0/../../../../arm-none-eabi/lib/libc.a(libc_time_time.c.o)
 .bss           0x00000000        0x0 /opt/wonderful/toolchain/gcc-arm-none-eabi/lib/gcc/arm-none-eabi/13.2.0/../../../../arm-none-eabi/lib/libc.a(libc_time_time.c.o)
 .text          0x00000000        0x0 /opt/wonderful/toolchain/gcc-arm-none-eabi/lib/gcc/arm-none-eabi/13.2.0/../../../../arm-none-eabi/lib/libc.a(libc_time_tzcalc_limits.c.o)
 .data          0x00000000        0x0 /opt/wonderful/toolchain/gcc-arm-none-eabi/lib/gcc/arm-none-eabi/13.2.0/../../../../arm-none-eabi/lib/libc.a(libc_time_tzcalc_limits.c.o)
 .bss           0x00000000        0x0 /opt/wonderful/toolchain/gcc-arm-none-eabi/lib/gcc/arm-none-eabi/13.2.0/../../../../arm-none-eabi/lib/libc.a(libc_time_tzcalc_limits.c.o)
 .text          0x00000000        0x0 /opt/wonderful/toolchain/gcc-arm-none-eabi/lib/gcc/arm-none-eabi/13.2.0/../../../../arm-none-eabi/lib/libc.a(libc_time_tzset.c.o)
 .data          0x00000000        0x0 /opt/wonderful/toolchain/gcc-arm-none-eabi/lib/gcc/arm-none-eabi/13.2.0/../../../../arm-none-eabi/lib/libc.a(libc_time_tzset.c.o)
 .text.tzset    0x00000000       0x20 /opt/wonderful/toolchain/gcc-arm-none-eabi/lib/gcc/arm-none-eabi/13.2.0/../../../../arm-none-eabi/lib/libc.a(libc_time_tzset.c.o)
 .text          0x00000000        0x0 /opt/wonderful/toolchain/gcc-arm-none-eabi/lib/gcc/arm-none-eabi/13.2.0/../../../../arm-none-eabi/lib/libc.a(libc_time_tzvars.c.o)
 .text          0x00000000        0x0 /opt/wonderful/toolchain/gcc-arm-none-eabi/lib/gcc/arm-none-eabi/13.2.0/../../../../arm-none-eabi/lib/libc.a(libc_tinystdio_fclose.c.o)
 .data          0x00000000        0x0 /opt/wonderful/toolchain/gcc-arm-none-eabi/lib/gcc/arm-none-eabi/13.2.0/../../../../arm-none-eabi/lib/libc.a(libc_tinystdio_fclose.c.o)
 .bss           0x00000000        0x0 /opt/wonderful/toolchain/gcc-arm-none-eabi/lib/gcc/arm-none-eabi/13.2.0/../../../../arm-none-eabi/lib/libc.a(libc_tinystdio_fclose.c.o)
 .text          0x00000000        0x0 /opt/wonderful/toolchain/gcc-arm-none-eabi/lib/gcc/arm-none-eabi/13.2.0/../../../../arm-none-eabi/lib/libc.a(libc_tinystdio_fflush.c.o)
 .data          0x00000000        0x0 /opt/wonderful/toolchain/gcc-arm-none-eabi/lib/gcc/arm-none-eabi/13.2.0/../../../../arm-none-eabi/lib/libc.a(libc_tinystdio_fflush.c.o)
 .bss           0x00000000        0x0 /opt/wonderful/toolchain/gcc-arm-none-eabi/lib/gcc/arm-none-eabi/13.2.0/../../../../arm-none-eabi/lib/libc.a(libc_tinystdio_fflush.c.o)
 .text          0x00000000        0x0 /opt/wonderful/toolchain/gcc-arm-none-eabi/lib/gcc/arm-none-eabi/13.2.0/../../../../arm-none-eabi/lib/libc.a(libc_tinystdio_fileno.c.o)
 .data          0x00000000        0x0 /opt/wonderful/toolchain/gcc-arm-none-eabi/lib/gcc/arm-none-eabi/13.2.0/../../../../arm-none-eabi/lib/libc.a(libc_tinystdio_fileno.c.o)
 .bss           0x00000000        0x0 /opt/wonderful/toolchain/gcc-arm-none-eabi/lib/gcc/arm-none-eabi/13.2.0/../../../../arm-none-eabi/lib/libc.a(libc_tinystdio_fileno.c.o)
 .text          0x00000000        0x0 /opt/wonderful/toolchain/gcc-arm-none-eabi/lib/gcc/arm-none-eabi/13.2.0/../../../../arm-none-eabi/lib/libc.a(libc_tinystdio_fread.c.o)
 .data          0x00000000        0x0 /opt/wonderful/toolchain/gcc-arm-none-eabi/lib/gcc/arm-none-eabi/13.2.0/../../../../arm-none-eabi/lib/libc.a(libc_tinystdio_fread.c.o)
 .bss           0x00000000        0x0 /opt/wonderful/toolchain/gcc-arm-none-eabi/lib/gcc/arm-none-eabi/13.2.0/../../../../arm-none-eabi/lib/libc.a(libc_tinystdio_fread.c.o)
 .text          0x00000000        0x0 /opt/wonderful/toolchain/gcc-arm-none-eabi/lib/gcc/arm-none-eabi/13.2.0/../../../../arm-none-eabi/lib/libc.a(libc_tinystdio_fseek.c.o)
 .data          0x00000000        0x0 /opt/wonderful/toolchain/gcc-arm-none-eabi/lib/gcc/arm-none-eabi/13.2.0/../../../../arm-none-eabi/lib/libc.a(libc_tinystdio_fseek.c.o)
 .bss           0x00000000        0x0 /opt/wonderful/toolchain/gcc-arm-none-eabi/lib/gcc/arm-none-eabi/13.2.0/../../../../arm-none-eabi/lib/libc.a(libc_tinystdio_fseek.c.o)
 .text          0x00000000        0x0 /opt/wonderful/toolchain/gcc-arm-none-eabi/lib/gcc/arm-none-eabi/13.2.0/../../../../arm-none-eabi/lib/libc.a(libc_tinystdio_ftell.c.o)
 .data          0x00000000        0x0 /opt/wonderful/toolchain/gcc-arm-none-eabi/lib/gcc/arm-none-eabi/13.2.0/../../../../arm-none-eabi/lib/libc.a(libc_tinystdio_ftell.c.o)
 .bss           0x00000000        0x0 /opt/wonderful/toolchain/gcc-arm-none-eabi/lib/gcc/arm-none-eabi/13.2.0/../../../../arm-none-eabi/lib/libc.a(libc_tinystdio_ftell.c.o)
 .text          0x00000000        0x0 /opt/wonderful/toolchain/gcc-arm-none-eabi/lib/gcc/arm-none-eabi/13.2.0/../../../../arm-none-eabi/lib/libc.a(libc_tinystdio_printf.c.o)
 .data          0x00000000        0x0 /opt/wonderful/toolchain/gcc-arm-none-eabi/lib/gcc/arm-none-eabi/13.2.0/../../../../arm-none-eabi/lib/libc.a(libc_tinystdio_printf.c.o)
 .bss           0x00000000        0x0 /opt/wonderful/toolchain/gcc-arm-none-eabi/lib/gcc/arm-none-eabi/13.2.0/../../../../arm-none-eabi/lib/libc.a(libc_tinystdio_printf.c.o)
 .text          0x00000000        0x0 /opt/wonderful/toolchain/gcc-arm-none-eabi/lib/gcc/arm-none-eabi/13.2.0/../../../../arm-none-eabi/lib/libc.a(libc_tinystdio_puts.c.o)
 .data          0x00000000        0x0 /opt/wonderful/toolchain/gcc-arm-none-eabi/lib/gcc/arm-none-eabi/13.2.0/../../../../arm-none-eabi/lib/libc.a(libc_tinystdio_puts.c.o)
 .bss           0x00000000        0x0 /opt/wonderful/toolchain/gcc-arm-none-eabi/lib/gcc/arm-none-eabi/13.2.0/../../../../arm-none-eabi/lib/libc.a(libc_tinystdio_puts.c.o)
 .text          0x00000000        0x0 /opt/wonderful/toolchain/gcc-arm-none-eabi/lib/gcc/arm-none-eabi/13.2.0/../../../../arm-none-eabi/lib/libc.a(libc_tinystdio_rewind.c.o)
 .data          0x00000000        0x0 /opt/wonderful/toolchain/gcc-arm-none-eabi/lib/gcc/arm-none-eabi/13.2.0/../../../../arm-none-eabi/lib/libc.a(libc_tinystdio_rewind.c.o)
 .bss           0x00000000        0x0 /opt/wonderful/toolchain/gcc-arm-none-eabi/lib/gcc/arm-none-eabi/13.2.0/../../../../arm-none-eabi/lib/libc.a(libc_tinystdio_rewind.c.o)
 .text          0x00000000        0x0 /opt/wonderful/toolchain/gcc-arm-none-eabi/lib/gcc/arm-none-eabi/13.2.0/../../../../arm-none-eabi/lib/libc.a(libc_tinystdio_setvbuf.c.o)
 .data          0x00000000        0x0 /opt/wonderful/toolchain/gcc-arm-none-eabi/lib/gcc/arm-none-eabi/13.2.0/../../../../arm-none-eabi/lib/libc.a(libc_tinystdio_setvbuf.c.o)
 .bss           0x00000000        0x0 /opt/wonderful/toolchain/gcc-arm-none-eabi/lib/gcc/arm-none-eabi/13.2.0/../../../../arm-none-eabi/lib/libc.a(libc_tinystdio_setvbuf.c.o)
 .text          0x00000000        0x0 /opt/wonderful/toolchain/gcc-arm-none-eabi/lib/gcc/arm-none-eabi/13.2.0/../../../../arm-none-eabi/lib/libc.a(libc_tinystdio_snprintf.c.o)
 .data          0x00000000        0x0 /opt/wonderful/toolchain/gcc-arm-none-eabi/lib/gcc/arm-none-eabi/13.2.0/../../../../arm-none-eabi/lib/libc.a(libc_tinystdio_snprintf.c.o)
 .bss           0x00000000        0x0 /opt/wonderful/toolchain/gcc-arm-none-eabi/lib/gcc/arm-none-eabi/13.2.0/../../../../arm-none-eabi/lib/libc.a(libc_tinystdio_snprintf.c.o)
 .text          0x00000000        0x0 /opt/wonderful/toolchain/gcc-arm-none-eabi/lib/gcc/arm-none-eabi/13.2.0/../../../../arm-none-eabi/lib/libc.a(libc_tinystdio_sprintf.c.o)
 .data          0x00000000        0x0 /opt/wonderful/toolchain/gcc-arm-none-eabi/lib/gcc/arm-none-eabi/13.2.0/../../../../arm-none-eabi/lib/libc.a(libc_tinystdio_sprintf.c.o)
 .bss           0x00000000        0x0 /opt/wonderful/toolchain/gcc-arm-none-eabi/lib/gcc/arm-none-eabi/13.2.0/../../../../arm-none-eabi/lib/libc.a(libc_tinystdio_sprintf.c.o)
 .text          0x00000000        0x0 /opt/wonderful/toolchain/gcc-arm-none-eabi/lib/gcc/arm-none-eabi/13.2.0/../../../../arm-none-eabi/lib/libc.a(libc_tinystdio_sscanf.c.o)
 .data          0x00000000        0x0 /opt/wonderful/toolchain/gcc-arm-none-eabi/lib/gcc/arm-none-eabi/13.2.0/../../../../arm-none-eabi/lib/libc.a(libc_tinystdio_sscanf.c.o)
 .bss           0x00000000        0x0 /opt/wonderful/toolchain/gcc-arm-none-eabi/lib/gcc/arm-none-eabi/13.2.0/../../../../arm-none-eabi/lib/libc.a(libc_tinystdio_sscanf.c.o)
 .text          0x00000000        0x0 /opt/wonderful/toolchain/gcc-arm-none-eabi/lib/gcc/arm-none-eabi/13.2.0/../../../../arm-none-eabi/lib/libc.a(libc_tinystdio_strtoul.c.o)
 .data          0x00000000        0x0 /opt/wonderful/toolchain/gcc-arm-none-eabi/lib/gcc/arm-none-eabi/13.2.0/../../../../arm-none-eabi/lib/libc.a(libc_tinystdio_strtoul.c.o)
 .bss           0x00000000        0x0 /opt/wonderful/toolchain/gcc-arm-none-eabi/lib/gcc/arm-none-eabi/13.2.0/../../../../arm-none-eabi/lib/libc.a(libc_tinystdio_strtoul.c.o)
 .text          0x00000000        0x0 /opt/wonderful/toolchain/gcc-arm-none-eabi/lib/gcc/arm-none-eabi/13.2.0/../../../../arm-none-eabi/lib/libc.a(libc_tinystdio_vfprintf.c.o)
 .data          0x00000000        0x0 /opt/wonderful/toolchain/gcc-arm-none-eabi/lib/gcc/arm-none-eabi/13.2.0/../../../../arm-none-eabi/lib/libc.a(libc_tinystdio_vfprintf.c.o)
 .bss           0x00000000        0x0 /opt/wonderful/toolchain/gcc-arm-none-eabi/lib/gcc/arm-none-eabi/13.2.0/../../../../arm-none-eabi/lib/libc.a(libc_tinystdio_vfprintf.c.o)
 .text          0x00000000        0x0 /opt/wonderful/toolchain/gcc-arm-none-eabi/lib/gcc/arm-none-eabi/13.2.0/../../../../arm-none-eabi/lib/libc.a(libc_tinystdio_vfscanf.c.o)
 .data          0x00000000        0x0 /opt/wonderful/toolchain/gcc-arm-none-eabi/lib/gcc/arm-none-eabi/13.2.0/../../../../arm-none-eabi/lib/libc.a(libc_tinystdio_vfscanf.c.o)
 .bss           0x00000000        0x0 /opt/wonderful/toolchain/gcc-arm-none-eabi/lib/gcc/arm-none-eabi/13.2.0/../../../../arm-none-eabi/lib/libc.a(libc_tinystdio_vfscanf.c.o)
 .text          0x00000000        0x0 /opt/wonderful/toolchain/gcc-arm-none-eabi/lib/gcc/arm-none-eabi/13.2.0/../../../../arm-none-eabi/lib/libc.a(libc_tinystdio_dtoa_ryu.c.o)
 .data          0x00000000        0x0 /opt/wonderful/toolchain/gcc-arm-none-eabi/lib/gcc/arm-none-eabi/13.2.0/../../../../arm-none-eabi/lib/libc.a(libc_tinystdio_dtoa_ryu.c.o)
 .bss           0x00000000        0x0 /opt/wonderful/toolchain/gcc-arm-none-eabi/lib/gcc/arm-none-eabi/13.2.0/../../../../arm-none-eabi/lib/libc.a(libc_tinystdio_dtoa_ryu.c.o)
 .text          0x00000000        0x0 /opt/wonderful/toolchain/gcc-arm-none-eabi/lib/gcc/arm-none-eabi/13.2.0/../../../../arm-none-eabi/lib/libc.a(libc_tinystdio_ryu_table.c.o)
 .data          0x00000000        0x0 /opt/wonderful/toolchain/gcc-arm-none-eabi/lib/gcc/arm-none-eabi/13.2.0/../../../../arm-none-eabi/lib/libc.a(libc_tinystdio_ryu_table.c.o)
 .bss           0x00000000        0x0 /opt/wonderful/toolchain/gcc-arm-none-eabi/lib/gcc/arm-none-eabi/13.2.0/../../../../arm-none-eabi/lib/libc.a(libc_tinystdio_ryu_table.c.o)
 .text          0x00000000        0x0 /opt/wonderful/toolchain/gcc-arm-none-eabi/lib/gcc/arm-none-eabi/13.2.0/../../../../arm-none-eabi/lib/libc.a(libc_tinystdio_atod_ryu.c.o)
 .data          0x00000000        0x0 /opt/wonderful/toolchain/gcc-arm-none-eabi/lib/gcc/arm-none-eabi/13.2.0/../../../../arm-none-eabi/lib/libc.a(libc_tinystdio_atod_ryu.c.o)
 .bss           0x00000000        0x0 /opt/wonderful/toolchain/gcc-arm-none-eabi/lib/gcc/arm-none-eabi/13.2.0/../../../../arm-none-eabi/lib/libc.a(libc_tinystdio_atod_ryu.c.o)
 .text          0x00000000        0x0 /opt/wonderful/toolchain/gcc-arm-none-eabi/lib/gcc/arm-none-eabi/13.2.0/../../../../arm-none-eabi/lib/libc.a(libc_tinystdio_atof_ryu.c.o)
 .data          0x00000000        0x0 /opt/wonderful/toolchain/gcc-arm-none-eabi/lib/gcc/arm-none-eabi/13.2.0/../../../../arm-none-eabi/lib/libc.a(libc_tinystdio_atof_ryu.c.o)
 .bss           0x00000000        0x0 /opt/wonderful/toolchain/gcc-arm-none-eabi/lib/gcc/arm-none-eabi/13.2.0/../../../../arm-none-eabi/lib/libc.a(libc_tinystdio_atof_ryu.c.o)
 .text          0x00000000        0x0 /opt/wonderful/toolchain/gcc-arm-none-eabi/lib/gcc/arm-none-eabi/13.2.0/../../../../arm-none-eabi/lib/libc.a(libc_tinystdio_ryu_log2pow5.c.o)
 .data          0x00000000        0x0 /opt/wonderful/toolchain/gcc-arm-none-eabi/lib/gcc/arm-none-eabi/13.2.0/../../../../arm-none-eabi/lib/libc.a(libc_tinystdio_ryu_log2pow5.c.o)
 .bss           0x00000000        0x0 /opt/wonderful/toolchain/gcc-arm-none-eabi/lib/gcc/arm-none-eabi/13.2.0/../../../../arm-none-eabi/lib/libc.a(libc_tinystdio_ryu_log2pow5.c.o)
 .text          0x00000000        0x0 /opt/wonderful/toolchain/gcc-arm-none-eabi/lib/gcc/arm-none-eabi/13.2.0/../../../../arm-none-eabi/lib/libc.a(libc_tinystdio_ryu_log10.c.o)
 .data          0x00000000        0x0 /opt/wonderful/toolchain/gcc-arm-none-eabi/lib/gcc/arm-none-eabi/13.2.0/../../../../arm-none-eabi/lib/libc.a(libc_tinystdio_ryu_log10.c.o)
 .bss           0x00000000        0x0 /opt/wonderful/toolchain/gcc-arm-none-eabi/lib/gcc/arm-none-eabi/13.2.0/../../../../arm-none-eabi/lib/libc.a(libc_tinystdio_ryu_log10.c.o)
 .text          0x00000000        0x0 /opt/wonderful/toolchain/gcc-arm-none-eabi/lib/gcc/arm-none-eabi/13.2.0/../../../../arm-none-eabi/lib/libc.a(libc_tinystdio_ryu_pow5bits.c.o)
 .data          0x00000000        0x0 /opt/wonderful/toolchain/gcc-arm-none-eabi/lib/gcc/arm-none-eabi/13.2.0/../../../../arm-none-eabi/lib/libc.a(libc_tinystdio_ryu_pow5bits.c.o)
 .bss           0x00000000        0x0 /opt/wonderful/toolchain/gcc-arm-none-eabi/lib/gcc/arm-none-eabi/13.2.0/../../../../arm-none-eabi/lib/libc.a(libc_tinystdio_ryu_pow5bits.c.o)
 .text          0x00000000        0x0 /opt/wonderful/toolchain/gcc-arm-none-eabi/lib/gcc/arm-none-eabi/13.2.0/../../../../arm-none-eabi/lib/libc.a(libc_tinystdio_ryu_umul128.c.o)
 .data          0x00000000        0x0 /opt/wonderful/toolchain/gcc-arm-none-eabi/lib/gcc/arm-none-eabi/13.2.0/../../../../arm-none-eabi/lib/libc.a(libc_tinystdio_ryu_umul128.c.o)
 .bss           0x00000000        0x0 /opt/wonderful/toolchain/gcc-arm-none-eabi/lib/gcc/arm-none-eabi/13.2.0/../../../../arm-none-eabi/lib/libc.a(libc_tinystdio_ryu_umul128.c.o)
 .text          0x00000000        0x0 /opt/wonderful/toolchain/gcc-arm-none-eabi/lib/gcc/arm-none-eabi/13.2.0/../../../../arm-none-eabi/lib/libc.a(libc_tinystdio_ryu_divpow2.c.o)
 .data          0x00000000        0x0 /opt/wonderful/toolchain/gcc-arm-none-eabi/lib/gcc/arm-none-eabi/13.2.0/../../../../arm-none-eabi/lib/libc.a(libc_tinystdio_ryu_divpow2.c.o)
 .bss           0x00000000        0x0 /opt/wonderful/toolchain/gcc-arm-none-eabi/lib/gcc/arm-none-eabi/13.2.0/../../../../arm-none-eabi/lib/libc.a(libc_tinystdio_ryu_divpow2.c.o)
 .text          0x00000000        0x0 /opt/wonderful/toolchain/gcc-arm-none-eabi/lib/gcc/arm-none-eabi/13.2.0/../../../../arm-none-eabi/lib/libc.a(libc_tinystdio_exchange.c.o)
 .data          0x00000000        0x0 /opt/wonderful/toolchain/gcc-arm-none-eabi/lib/gcc/arm-none-eabi/13.2.0/../../../../arm-none-eabi/lib/libc.a(libc_tinystdio_exchange.c.o)
 .bss           0x00000000        0x0 /opt/wonderful/toolchain/gcc-arm-none-eabi/lib/gcc/arm-none-eabi/13.2.0/../../../../arm-none-eabi/lib/libc.a(libc_tinystdio_exchange.c.o)
 .text          0x00000000        0x0 /opt/wonderful/toolchain/gcc-arm-none-eabi/lib/gcc/arm-none-eabi/13.2.0/../../../../arm-none-eabi/lib/libc.a(libc_tinystdio_fopen.c.o)
 .data          0x00000000        0x0 /opt/wonderful/toolchain/gcc-arm-none-eabi/lib/gcc/arm-none-eabi/13.2.0/../../../../arm-none-eabi/lib/libc.a(libc_tinystdio_fopen.c.o)
 .bss           0x00000000        0x0 /opt/wonderful/toolchain/gcc-arm-none-eabi/lib/gcc/arm-none-eabi/13.2.0/../../../../arm-none-eabi/lib/libc.a(libc_tinystdio_fopen.c.o)
 .text          0x00000000        0x0 /opt/wonderful/toolchain/gcc-arm-none-eabi/lib/gcc/arm-none-eabi/13.2.0/../../../../arm-none-eabi/lib/libc.a(libc_tinystdio_fdopen.c.o)
 .data          0x00000000        0x0 /opt/wonderful/toolchain/gcc-arm-none-eabi/lib/gcc/arm-none-eabi/13.2.0/../../../../arm-none-eabi/lib/libc.a(libc_tinystdio_fdopen.c.o)
 .bss           0x00000000        0x0 /opt/wonderful/toolchain/gcc-arm-none-eabi/lib/gcc/arm-none-eabi/13.2.0/../../../../arm-none-eabi/lib/libc.a(libc_tinystdio_fdopen.c.o)
 .text          0x00000000        0x0 /opt/wonderful/toolchain/gcc-arm-none-eabi/lib/gcc/arm-none-eabi/13.2.0/../../../../arm-none-eabi/lib/libc.a(memmove.c.o)
 .data          0x00000000        0x0 /opt/wonderful/toolchain/gcc-arm-none-eabi/lib/gcc/arm-none-eabi/13.2.0/../../../../arm-none-eabi/lib/libc.a(memmove.c.o)
 .bss           0x00000000        0x0 /opt/wonderful/toolchain/gcc-arm-none-eabi/lib/gcc/arm-none-eabi/13.2.0/../../../../arm-none-eabi/lib/libc.a(memmove.c.o)
 .text          0x00000000        0x0 /opt/wonderful/toolchain/gcc-arm-none-eabi/lib/gcc/arm-none-eabi/13.2.0/../../../../arm-none-eabi/lib/libc.a(libc_misc_fini.c.o)
 .data          0x00000000        0x0 /opt/wonderful/toolchain/gcc-arm-none-eabi/lib/gcc/arm-none-eabi/13.2.0/../../../../arm-none-eabi/lib/libc.a(libc_misc_fini.c.o)
 .bss           0x00000000        0x0 /opt/wonderful/toolchain/gcc-arm-none-eabi/lib/gcc/arm-none-eabi/13.2.0/../../../../arm-none-eabi/lib/libc.a(libc_misc_fini.c.o)
 .text          0x00000000        0x0 /opt/wonderful/toolchain/gcc-arm-none-eabi/lib/gcc/arm-none-eabi/13.2.0/../../../../arm-none-eabi/lib/libc.a(libc_stdlib_div.c.o)
 .data          0x00000000        0x0 /opt/wonderful/toolchain/gcc-arm-none-eabi/lib/gcc/arm-none-eabi/13.2.0/../../../../arm-none-eabi/lib/libc.a(libc_stdlib_div.c.o)
 .bss           0x00000000        0x0 /opt/wonderful/toolchain/gcc-arm-none-eabi/lib/gcc/arm-none-eabi/13.2.0/../../../../arm-none-eabi/lib/libc.a(libc_stdlib_div.c.o)
 .text.div      0x00000000       0x18 /opt/wonderful/toolchain/gcc-arm-none-eabi/lib/gcc/arm-none-eabi/13.2.0/../../../../arm-none-eabi/lib/libc.a(libc_stdlib_div.c.o)
 .debug_info    0x00000000      0x10b /opt/wonderful/toolchain/gcc-arm-none-eabi/lib/gcc/arm-none-eabi/13.2.0/../../../../arm-none-eabi/lib/libc.a(libc_stdlib_div.c.o)
 .debug_abbrev  0x00000000       0xd9 /opt/wonderful/toolchain/gcc-arm-none-eabi/lib/gcc/arm-none-eabi/13.2.0/../../../../arm-none-eabi/lib/libc.a(libc_stdlib_div.c.o)
 .debug_loclists
                0x00000000       0x6a /opt/wonderful/toolchain/gcc-arm-none-eabi/lib/gcc/arm-none-eabi/13.2.0/../../../../arm-none-eabi/lib/libc.a(libc_stdlib_div.c.o)
 .debug_aranges
                0x00000000       0x20 /opt/wonderful/toolchain/gcc-arm-none-eabi/lib/gcc/arm-none-eabi/13.2.0/../../../../arm-none-eabi/lib/libc.a(libc_stdlib_div.c.o)
 .debug_rnglists
                0x00000000       0x13 /opt/wonderful/toolchain/gcc-arm-none-eabi/lib/gcc/arm-none-eabi/13.2.0/../../../../arm-none-eabi/lib/libc.a(libc_stdlib_div.c.o)
 .debug_line    0x00000000       0xaa /opt/wonderful/toolchain/gcc-arm-none-eabi/lib/gcc/arm-none-eabi/13.2.0/../../../../arm-none-eabi/lib/libc.a(libc_stdlib_div.c.o)
 .debug_str     0x00000000      0x212 /opt/wonderful/toolchain/gcc-arm-none-eabi/lib/gcc/arm-none-eabi/13.2.0/../../../../arm-none-eabi/lib/libc.a(libc_stdlib_div.c.o)
 .comment       0x00000000       0x23 /opt/wonderful/toolchain/gcc-arm-none-eabi/lib/gcc/arm-none-eabi/13.2.0/../../../../arm-none-eabi/lib/libc.a(libc_stdlib_div.c.o)
 .debug_frame   0x00000000       0x28 /opt/wonderful/toolchain/gcc-arm-none-eabi/lib/gcc/arm-none-eabi/13.2.0/../../../../arm-none-eabi/lib/libc.a(libc_stdlib_div.c.o)
 .ARM.attributes
                0x00000000       0x2e /opt/wonderful/toolchain/gcc-arm-none-eabi/lib/gcc/arm-none-eabi/13.2.0/../../../../arm-none-eabi/lib/libc.a(libc_stdlib_div.c.o)
 .text          0x00000000        0x0 /opt/wonderful/toolchain/gcc-arm-none-eabi/lib/gcc/arm-none-eabi/13.2.0/../../../../arm-none-eabi/lib/libc.a(libc_stdlib_getenv.c.o)
 .data          0x00000000        0x0 /opt/wonderful/toolchain/gcc-arm-none-eabi/lib/gcc/arm-none-eabi/13.2.0/../../../../arm-none-eabi/lib/libc.a(libc_stdlib_getenv.c.o)
 .bss           0x00000000        0x0 /opt/wonderful/toolchain/gcc-arm-none-eabi/lib/gcc/arm-none-eabi/13.2.0/../../../../arm-none-eabi/lib/libc.a(libc_stdlib_getenv.c.o)
 .text          0x00000000        0x0 /opt/wonderful/toolchain/gcc-arm-none-eabi/lib/gcc/arm-none-eabi/13.2.0/../../../../arm-none-eabi/lib/libc.a(libc_stdlib_getenv_r.c.o)
 .data          0x00000000        0x0 /opt/wonderful/toolchain/gcc-arm-none-eabi/lib/gcc/arm-none-eabi/13.2.0/../../../../arm-none-eabi/lib/libc.a(libc_stdlib_getenv_r.c.o)
 .bss           0x00000000        0x0 /opt/wonderful/toolchain/gcc-arm-none-eabi/lib/gcc/arm-none-eabi/13.2.0/../../../../arm-none-eabi/lib/libc.a(libc_stdlib_getenv_r.c.o)
 .text          0x00000000        0x0 /opt/wonderful/toolchain/gcc-arm-none-eabi/lib/gcc/arm-none-eabi/13.2.0/../../../../arm-none-eabi/lib/libc.a(libc_string_strnlen.c.o)
 .data          0x00000000        0x0 /opt/wonderful/toolchain/gcc-arm-none-eabi/lib/gcc/arm-none-eabi/13.2.0/../../../../arm-none-eabi/lib/libc.a(libc_string_strnlen.c.o)
 .bss           0x00000000        0x0 /opt/wonderful/toolchain/gcc-arm-none-eabi/lib/gcc/arm-none-eabi/13.2.0/../../../../arm-none-eabi/lib/libc.a(libc_string_strnlen.c.o)
 .text          0x00000000        0x0 /opt/wonderful/toolchain/gcc-arm-none-eabi/lib/gcc/arm-none-eabi/13.2.0/../../../../arm-none-eabi/lib/libc.a(libc_time_gettzinfo.c.o)
 .data          0x00000000        0x0 /opt/wonderful/toolchain/gcc-arm-none-eabi/lib/gcc/arm-none-eabi/13.2.0/../../../../arm-none-eabi/lib/libc.a(libc_time_gettzinfo.c.o)
 .text          0x00000000        0x0 /opt/wonderful/toolchain/gcc-arm-none-eabi/lib/gcc/arm-none-eabi/13.2.0/../../../../arm-none-eabi/lib/libc.a(libc_time_gmtime_r.c.o)
 .data          0x00000000        0x0 /opt/wonderful/toolchain/gcc-arm-none-eabi/lib/gcc/arm-none-eabi/13.2.0/../../../../arm-none-eabi/lib/libc.a(libc_time_gmtime_r.c.o)
 .bss           0x00000000        0x0 /opt/wonderful/toolchain/gcc-arm-none-eabi/lib/gcc/arm-none-eabi/13.2.0/../../../../arm-none-eabi/lib/libc.a(libc_time_gmtime_r.c.o)
 .text          0x00000000        0x0 /opt/wonderful/toolchain/gcc-arm-none-eabi/lib/gcc/arm-none-eabi/13.2.0/../../../../arm-none-eabi/lib/libc.a(libc_tinystdio_bufio.c.o)
 .data          0x00000000        0x0 /opt/wonderful/toolchain/gcc-arm-none-eabi/lib/gcc/arm-none-eabi/13.2.0/../../../../arm-none-eabi/lib/libc.a(libc_tinystdio_bufio.c.o)
 .bss           0x00000000        0x0 /opt/wonderful/toolchain/gcc-arm-none-eabi/lib/gcc/arm-none-eabi/13.2.0/../../../../arm-none-eabi/lib/libc.a(libc_tinystdio_bufio.c.o)
 .text          0x00000000        0x0 /opt/wonderful/toolchain/gcc-arm-none-eabi/lib/gcc/arm-none-eabi/13.2.0/../../../../arm-none-eabi/lib/libc.a(libc_tinystdio_dtox_engine.c.o)
 .data          0x00000000        0x0 /opt/wonderful/toolchain/gcc-arm-none-eabi/lib/gcc/arm-none-eabi/13.2.0/../../../../arm-none-eabi/lib/libc.a(libc_tinystdio_dtox_engine.c.o)
 .bss           0x00000000        0x0 /opt/wonderful/toolchain/gcc-arm-none-eabi/lib/gcc/arm-none-eabi/13.2.0/../../../../arm-none-eabi/lib/libc.a(libc_tinystdio_dtox_engine.c.o)
 .text          0x00000000        0x0 /opt/wonderful/toolchain/gcc-arm-none-eabi/lib/gcc/arm-none-eabi/13.2.0/../../../../arm-none-eabi/lib/libc.a(libc_tinystdio_fgetc.c.o)
 .data          0x00000000        0x0 /opt/wonderful/toolchain/gcc-arm-none-eabi/lib/gcc/arm-none-eabi/13.2.0/../../../../arm-none-eabi/lib/libc.a(libc_tinystdio_fgetc.c.o)
 .bss           0x00000000        0x0 /opt/wonderful/toolchain/gcc-arm-none-eabi/lib/gcc/arm-none-eabi/13.2.0/../../../../arm-none-eabi/lib/libc.a(libc_tinystdio_fgetc.c.o)
 .text          0x00000000        0x0 /opt/wonderful/toolchain/gcc-arm-none-eabi/lib/gcc/arm-none-eabi/13.2.0/../../../../arm-none-eabi/lib/libc.a(libc_tinystdio_filestrget.c.o)
 .data          0x00000000        0x0 /opt/wonderful/toolchain/gcc-arm-none-eabi/lib/gcc/arm-none-eabi/13.2.0/../../../../arm-none-eabi/lib/libc.a(libc_tinystdio_filestrget.c.o)
 .bss           0x00000000        0x0 /opt/wonderful/toolchain/gcc-arm-none-eabi/lib/gcc/arm-none-eabi/13.2.0/../../../../arm-none-eabi/lib/libc.a(libc_tinystdio_filestrget.c.o)
 .text          0x00000000        0x0 /opt/wonderful/toolchain/gcc-arm-none-eabi/lib/gcc/arm-none-eabi/13.2.0/../../../../arm-none-eabi/lib/libc.a(libc_tinystdio_filestrput.c.o)
 .data          0x00000000        0x0 /opt/wonderful/toolchain/gcc-arm-none-eabi/lib/gcc/arm-none-eabi/13.2.0/../../../../arm-none-eabi/lib/libc.a(libc_tinystdio_filestrput.c.o)
 .bss           0x00000000        0x0 /opt/wonderful/toolchain/gcc-arm-none-eabi/lib/gcc/arm-none-eabi/13.2.0/../../../../arm-none-eabi/lib/libc.a(libc_tinystdio_filestrput.c.o)
 .text          0x00000000        0x0 /opt/wonderful/toolchain/gcc-arm-none-eabi/lib/gcc/arm-none-eabi/13.2.0/../../../../arm-none-eabi/lib/libc.a(libc_tinystdio_fseeko.c.o)
 .data          0x00000000        0x0 /opt/wonderful/toolchain/gcc-arm-none-eabi/lib/gcc/arm-none-eabi/13.2.0/../../../../arm-none-eabi/lib/libc.a(libc_tinystdio_fseeko.c.o)
 .bss           0x00000000        0x0 /opt/wonderful/toolchain/gcc-arm-none-eabi/lib/gcc/arm-none-eabi/13.2.0/../../../../arm-none-eabi/lib/libc.a(libc_tinystdio_fseeko.c.o)
 .text          0x00000000        0x0 /opt/wonderful/toolchain/gcc-arm-none-eabi/lib/gcc/arm-none-eabi/13.2.0/../../../../arm-none-eabi/lib/libc.a(libc_tinystdio_sflags.c.o)
 .data          0x00000000        0x0 /opt/wonderful/toolchain/gcc-arm-none-eabi/lib/gcc/arm-none-eabi/13.2.0/../../../../arm-none-eabi/lib/libc.a(libc_tinystdio_sflags.c.o)
 .bss           0x00000000        0x0 /opt/wonderful/toolchain/gcc-arm-none-eabi/lib/gcc/arm-none-eabi/13.2.0/../../../../arm-none-eabi/lib/libc.a(libc_tinystdio_sflags.c.o)
 .text          0x00000000        0x0 /opt/wonderful/toolchain/gcc-arm-none-eabi/lib/gcc/arm-none-eabi/13.2.0/../../../../arm-none-eabi/lib/libc.a(libc_tinystdio_ungetc.c.o)
 .data          0x00000000        0x0 /opt/wonderful/toolchain/gcc-arm-none-eabi/lib/gcc/arm-none-eabi/13.2.0/../../../../arm-none-eabi/lib/libc.a(libc_tinystdio_ungetc.c.o)
 .bss           0x00000000        0x0 /opt/wonderful/toolchain/gcc-arm-none-eabi/lib/gcc/arm-none-eabi/13.2.0/../../../../arm-none-eabi/lib/libc.a(libc_tinystdio_ungetc.c.o)
 .text          0x00000000        0x0 /opt/wonderful/toolchain/gcc-arm-none-eabi/lib/gcc/arm-none-eabi/13.2.0/../../../../arm-none-eabi/lib/libc.a(libc_tinystdio_compare_exchange.c.o)
 .data          0x00000000        0x0 /opt/wonderful/toolchain/gcc-arm-none-eabi/lib/gcc/arm-none-eabi/13.2.0/../../../../arm-none-eabi/lib/libc.a(libc_tinystdio_compare_exchange.c.o)
 .bss           0x00000000        0x0 /opt/wonderful/toolchain/gcc-arm-none-eabi/lib/gcc/arm-none-eabi/13.2.0/../../../../arm-none-eabi/lib/libc.a(libc_tinystdio_compare_exchange.c.o)
 .text          0x00000000        0x0 /opt/wonderful/toolchain/gcc-arm-none-eabi/lib/gcc/arm-none-eabi/13.2.0/../../../../arm-none-eabi/lib/libc.a(libc_stdlib_environ.c.o)
 .data          0x00000000        0x0 /opt/wonderful/toolchain/gcc-arm-none-eabi/lib/gcc/arm-none-eabi/13.2.0/thumb/libgcc.a(_thumb1_case_uqi.o)
 .bss           0x00000000        0x0 /opt/wonderful/toolchain/gcc-arm-none-eabi/lib/gcc/arm-none-eabi/13.2.0/thumb/libgcc.a(_thumb1_case_uqi.o)
 .data          0x00000000        0x0 /opt/wonderful/toolchain/gcc-arm-none-eabi/lib/gcc/arm-none-eabi/13.2.0/thumb/libgcc.a(_udivsi3.o)
 .bss           0x00000000        0x0 /opt/wonderful/toolchain/gcc-arm-none-eabi/lib/gcc/arm-none-eabi/13.2.0/thumb/libgcc.a(_udivsi3.o)
 .data          0x00000000        0x0 /opt/wonderful/toolchain/gcc-arm-none-eabi/lib/gcc/arm-none-eabi/13.2.0/thumb/libgcc.a(_divsi3.o)
 .bss           0x00000000        0x0 /opt/wonderful/toolchain/gcc-arm-none-eabi/lib/gcc/arm-none-eabi/13.2.0/thumb/libgcc.a(_divsi3.o)
 .data          0x00000000        0x0 /opt/wonderful/toolchain/gcc-arm-none-eabi/lib/gcc/arm-none-eabi/13.2.0/thumb/libgcc.a(_dvmd_tls.o)
 .bss           0x00000000        0x0 /opt/wonderful/toolchain/gcc-arm-none-eabi/lib/gcc/arm-none-eabi/13.2.0/thumb/libgcc.a(_dvmd_tls.o)
 .data          0x00000000        0x0 /opt/wonderful/toolchain/gcc-arm-none-eabi/lib/gcc/arm-none-eabi/13.2.0/thumb/libgcc.a(_lshrdi3.o)
 .bss           0x00000000        0x0 /opt/wonderful/toolchain/gcc-arm-none-eabi/lib/gcc/arm-none-eabi/13.2.0/thumb/libgcc.a(_lshrdi3.o)
 .data          0x00000000        0x0 /opt/wonderful/toolchain/gcc-arm-none-eabi/lib/gcc/arm-none-eabi/13.2.0/thumb/libgcc.a(_ashrdi3.o)
 .bss           0x00000000        0x0 /opt/wonderful/toolchain/gcc-arm-none-eabi/lib/gcc/arm-none-eabi/13.2.0/thumb/libgcc.a(_ashrdi3.o)
 .data          0x00000000        0x0 /opt/wonderful/toolchain/gcc-arm-none-eabi/lib/gcc/arm-none-eabi/13.2.0/thumb/libgcc.a(_ashldi3.o)
 .bss           0x00000000        0x0 /opt/wonderful/toolchain/gcc-arm-none-eabi/lib/gcc/arm-none-eabi/13.2.0/thumb/libgcc.a(_ashldi3.o)
 .data          0x00000000        0x0 /opt/wonderful/toolchain/gcc-arm-none-eabi/lib/gcc/arm-none-eabi/13.2.0/thumb/libgcc.a(_arm_addsubdf3.o)
 .bss           0x00000000        0x0 /opt/wonderful/toolchain/gcc-arm-none-eabi/lib/gcc/arm-none-eabi/13.2.0/thumb/libgcc.a(_arm_addsubdf3.o)
 .data          0x00000000        0x0 /opt/wonderful/toolchain/gcc-arm-none-eabi/lib/gcc/arm-none-eabi/13.2.0/thumb/libgcc.a(_arm_truncdfsf2.o)
 .bss           0x00000000        0x0 /opt/wonderful/toolchain/gcc-arm-none-eabi/lib/gcc/arm-none-eabi/13.2.0/thumb/libgcc.a(_arm_truncdfsf2.o)
 .data          0x00000000        0x0 /opt/wonderful/toolchain/gcc-arm-none-eabi/lib/gcc/arm-none-eabi/13.2.0/thumb/libgcc.a(_clzsi2.o)
 .bss           0x00000000        0x0 /opt/wonderful/toolchain/gcc-arm-none-eabi/lib/gcc/arm-none-eabi/13.2.0/thumb/libgcc.a(_clzsi2.o)
 .data          0x00000000        0x0 /opt/wonderful/toolchain/gcc-arm-none-eabi/lib/gcc/arm-none-eabi/13.2.0/thumb/libgcc.a(_clzdi2.o)
 .bss           0x00000000        0x0 /opt/wonderful/toolchain/gcc-arm-none-eabi/lib/gcc/arm-none-eabi/13.2.0/thumb/libgcc.a(_clzdi2.o)
 .data          0x00000000        0x0 /opt/wonderful/toolchain/gcc-arm-none-eabi/lib/gcc/arm-none-eabi/13.2.0/thumb/libgcc.a(_aeabi_ldivmod.o)
 .bss           0x00000000        0x0 /opt/wonderful/toolchain/gcc-arm-none-eabi/lib/gcc/arm-none-eabi/13.2.0/thumb/libgcc.a(_aeabi_ldivmod.o)
 .data          0x00000000        0x0 /opt/wonderful/toolchain/gcc-arm-none-eabi/lib/gcc/arm-none-eabi/13.2.0/thumb/libgcc.a(_aeabi_uldivmod.o)
 .bss           0x00000000        0x0 /opt/wonderful/toolchain/gcc-arm-none-eabi/lib/gcc/arm-none-eabi/13.2.0/thumb/libgcc.a(_aeabi_uldivmod.o)
 .data          0x00000000        0x0 /opt/wonderful/toolchain/gcc-arm-none-eabi/lib/gcc/arm-none-eabi/13.2.0/thumb/libgcc.a(_muldi3.o)
 .bss           0x00000000        0x0 /opt/wonderful/toolchain/gcc-arm-none-eabi/lib/gcc/arm-none-eabi/13.2.0/thumb/libgcc.a(_muldi3.o)
 .data          0x00000000        0x0 /opt/wonderful/toolchain/gcc-arm-none-eabi/lib/gcc/arm-none-eabi/13.2.0/thumb/libgcc.a(_udivmoddi4.o)
 .bss           0x00000000        0x0 /opt/wonderful/toolchain/gcc-arm-none-eabi/lib/gcc/arm-none-eabi/13.2.0/thumb/libgcc.a(_udivmoddi4.o)
 .ARM.extab     0x00000000        0x0 /opt/wonderful/toolchain/gcc-arm-none-eabi/lib/gcc/arm-none-eabi/13.2.0/thumb/libgcc.a(_udivmoddi4.o)
 .text          0x00000000        0x0 /opt/wonderful/thirdparty/blocksds/core/libs/libnds/lib/libnds9.a(syscalls.c.o)
 .data          0x00000000        0x0 /opt/wonderful/thirdparty/blocksds/core/libs/libnds/lib/libnds9.a(syscalls.c.o)
 .bss           0x00000000        0x0 /opt/wonderful/thirdparty/blocksds/core/libs/libnds/lib/libnds9.a(syscalls.c.o)
 .text.getpid   0x00000000        0x4 /opt/wonderful/thirdparty/blocksds/core/libs/libnds/lib/libnds9.a(syscalls.c.o)
 .text.kill     0x00000000       0x28 /opt/wonderful/thirdparty/blocksds/core/libs/libnds/lib/libnds9.a(syscalls.c.o)
 .text.times    0x00000000        0x8 /opt/wonderful/thirdparty/blocksds/core/libs/libnds/lib/libnds9.a(syscalls.c.o)
 .text.fork     0x00000000       0x1c /opt/wonderful/thirdparty/blocksds/core/libs/libnds/lib/libnds9.a(syscalls.c.o)
 .text.execve   0x00000000       0x1c /opt/wonderful/thirdparty/blocksds/core/libs/libnds/lib/libnds9.a(syscalls.c.o)
 .text.getentropy
                0x00000000       0x1c /opt/wonderful/thirdparty/blocksds/core/libs/libnds/lib/libnds9.a(syscalls.c.o)
 .text.getauxval
                0x00000000       0x18 /opt/wonderful/thirdparty/blocksds/core/libs/libnds/lib/libnds9.a(syscalls.c.o)
 .bss.__dso_handle
                0x00000000        0x4 /opt/wonderful/thirdparty/blocksds/core/libs/libnds/lib/libnds9.a(syscalls.c.o)

Memory Configuration

Name             Origin             Length             Attributes
ewram            0x02000000         0x00380000
dtcm             0x02ff0000         0x00004000
vectors          0x01000000         0x00000100
itcm             0x01000100         0x00007f00
*default*        0x00000000         0xffffffff

Linker script and memory map

LOAD build/source/main.cpp.o
LOAD /opt/wonderful/thirdparty/blocksds/core/sys/crts/ds_arm9_crt0.o
START GROUP
LOAD /opt/wonderful/thirdparty/blocksds/external/nflib/lib/libnflib.a
LOAD /opt/wonderful/thirdparty/blocksds/core/libs/dswifi/lib/libdswifi9.a
LOAD /opt/wonderful/thirdparty/blocksds/core/libs/libnds/lib/libnds9.a
LOAD /opt/wonderful/toolchain/gcc-arm-none-eabi/lib/gcc/arm-none-eabi/13.2.0/../../../../arm-none-eabi/lib/libc.a
LOAD /opt/wonderful/toolchain/gcc-arm-none-eabi/lib/gcc/arm-none-eabi/13.2.0/../../../../arm-none-eabi/lib/thumb/libstdc++.a
LOAD /opt/wonderful/toolchain/gcc-arm-none-eabi/lib/gcc/arm-none-eabi/13.2.0/../../../../arm-none-eabi/lib/libc.a
LOAD /opt/wonderful/toolchain/gcc-arm-none-eabi/lib/gcc/arm-none-eabi/13.2.0/thumb/libgcc.a
END GROUP
                0x02380000                        __ewram_end = (ORIGIN (ewram) + LENGTH (ewram))
                0x02380000                        __eheap_end = (ORIGIN (ewram) + LENGTH (ewram))
                0x02ff4000                        __dtcm_top = (ORIGIN (dtcm) + LENGTH (dtcm))
                0x02ff3ff8                        __irq_flags = (__dtcm_top - 0x8)
                0x02ff3ffc                        __irq_vector = (__dtcm_top - 0x4)
                0x02ff3f00                        __sp_svc = (__dtcm_top - 0x100)
                0x02ff3e00                        __sp_irq = (__sp_svc - 0x100)
                0x02ff3d00                        __sp_usr = (__sp_irq - 0x100)

.secure         0x02000000      0x800
 *(.secure)
 .secure        0x02000000      0x800 /opt/wonderful/thirdparty/blocksds/core/libs/libnds/lib/libnds9.a(securearea.c.o)
                0x02000000                __secure_area__

.crt0           0x02000800      0x308
                0x02000800                        __text_start = .
 *(.crt0)
 .crt0          0x02000800      0x308 /opt/wonderful/thirdparty/blocksds/core/sys/crts/ds_arm9_crt0.o
                0x02000800                _start
                0x02000b08                        . = ALIGN (0x4)
                0x00004000                        PROVIDE (__dldi_size = 0x4000)
                0x0000000e                        __dldi_log2_size = (LOG2CEIL ((__dldi_size + 0x1)) - 0x1)

.dldi           0x02000b40     0x4000
                0x02000b40                        __dldi_start = .
 *(.dldi)
 .dldi          0x02000b40       0x88 /opt/wonderful/thirdparty/blocksds/core/libs/libnds/lib/libnds9.a(dldi_stub.s.o)
                0x02000b40                _io_dldi_stub
                0x02000bc8                        . = ALIGN (0x4)
                0x02000bc8                        __dldi_data_end = .
                0x02004b40                        __dldi_end = (__dldi_data_end > __dldi_start)?(__dldi_start + __dldi_size):__dldi_start
                0x02004b40                        . = __dldi_end
 *fill*         0x02000bc8     0x3f78 00
                0x02004b40                        . = ALIGN (0x4)

.plt
 *(.plt)

.init
 *(SORT_NONE(.init))

.text           0x02004b40     0xebd0
 *(EXCLUDE_FILE(*.twl* *.vectors* *.itcm*) .text)
 .text          0x02004b40       0x14 /opt/wonderful/toolchain/gcc-arm-none-eabi/lib/gcc/arm-none-eabi/13.2.0/../../../../arm-none-eabi/lib/libc.a(strcmp.S.o)
                0x02004b40                strcmp
 .text          0x02004b54        0xe /opt/wonderful/toolchain/gcc-arm-none-eabi/lib/gcc/arm-none-eabi/13.2.0/../../../../arm-none-eabi/lib/libc.a(strlen.S.o)
                0x02004b54                strlen
 *fill*         0x02004b62        0x2 ff
 .text          0x02004b64       0x14 /opt/wonderful/toolchain/gcc-arm-none-eabi/lib/gcc/arm-none-eabi/13.2.0/thumb/libgcc.a(_thumb1_case_uqi.o)
                0x02004b64                __gnu_thumb1_case_uqi
 .text          0x02004b78      0x11c /opt/wonderful/toolchain/gcc-arm-none-eabi/lib/gcc/arm-none-eabi/13.2.0/thumb/libgcc.a(_udivsi3.o)
                0x02004b78                __udivsi3
                0x02004b78                __aeabi_uidiv
                0x02004c74                __aeabi_uidivmod
 .text          0x02004c94      0x150 /opt/wonderful/toolchain/gcc-arm-none-eabi/lib/gcc/arm-none-eabi/13.2.0/thumb/libgcc.a(_divsi3.o)
                0x02004c94                __aeabi_idiv
                0x02004c94                __divsi3
                0x02004dc4                __aeabi_idivmod
 .text          0x02004de4        0x4 /opt/wonderful/toolchain/gcc-arm-none-eabi/lib/gcc/arm-none-eabi/13.2.0/thumb/libgcc.a(_dvmd_tls.o)
                0x02004de4                __aeabi_ldiv0
                0x02004de4                __aeabi_idiv0
 .text          0x02004de8       0x18 /opt/wonderful/toolchain/gcc-arm-none-eabi/lib/gcc/arm-none-eabi/13.2.0/thumb/libgcc.a(_lshrdi3.o)
                0x02004de8                __aeabi_llsr
                0x02004de8                __lshrdi3
 .text          0x02004e00       0x1c /opt/wonderful/toolchain/gcc-arm-none-eabi/lib/gcc/arm-none-eabi/13.2.0/thumb/libgcc.a(_ashrdi3.o)
                0x02004e00                __ashrdi3
                0x02004e00                __aeabi_lasr
 .text          0x02004e1c       0x18 /opt/wonderful/toolchain/gcc-arm-none-eabi/lib/gcc/arm-none-eabi/13.2.0/thumb/libgcc.a(_ashldi3.o)
                0x02004e1c                __ashldi3
                0x02004e1c                __aeabi_llsl
 .text          0x02004e34      0x424 /opt/wonderful/toolchain/gcc-arm-none-eabi/lib/gcc/arm-none-eabi/13.2.0/thumb/libgcc.a(_arm_addsubdf3.o)
                0x02004e34                __aeabi_drsub
                0x02004e3c                __subdf3
                0x02004e3c                __aeabi_dsub
                0x02004e40                __adddf3
                0x02004e40                __aeabi_dadd
                0x02005150                __aeabi_ui2d
                0x02005150                __floatunsidf
                0x02005174                __floatsidf
                0x02005174                __aeabi_i2d
                0x0200519c                __extendsfdf2
                0x0200519c                __aeabi_f2d
                0x020051e4                __aeabi_ul2d
                0x020051e4                __floatundidf
                0x020051f8                __aeabi_l2d
                0x020051f8                __floatdidf
 .text          0x02005258       0xa0 /opt/wonderful/toolchain/gcc-arm-none-eabi/lib/gcc/arm-none-eabi/13.2.0/thumb/libgcc.a(_arm_truncdfsf2.o)
                0x02005258                __aeabi_d2f
                0x02005258                __truncdfsf2
 .text          0x020052f8       0x48 /opt/wonderful/toolchain/gcc-arm-none-eabi/lib/gcc/arm-none-eabi/13.2.0/thumb/libgcc.a(_clzsi2.o)
                0x020052f8                __clzsi2
 .text          0x02005340       0x28 /opt/wonderful/toolchain/gcc-arm-none-eabi/lib/gcc/arm-none-eabi/13.2.0/thumb/libgcc.a(_clzdi2.o)
                0x02005340                __clzdi2
 .text          0x02005368       0xd4 /opt/wonderful/toolchain/gcc-arm-none-eabi/lib/gcc/arm-none-eabi/13.2.0/thumb/libgcc.a(_aeabi_ldivmod.o)
                0x02005368                __aeabi_ldivmod
 .text          0x0200543c       0x3c /opt/wonderful/toolchain/gcc-arm-none-eabi/lib/gcc/arm-none-eabi/13.2.0/thumb/libgcc.a(_aeabi_uldivmod.o)
                0x0200543c                __aeabi_uldivmod
 .text          0x02005478       0x64 /opt/wonderful/toolchain/gcc-arm-none-eabi/lib/gcc/arm-none-eabi/13.2.0/thumb/libgcc.a(_muldi3.o)
                0x02005478                __aeabi_lmul
                0x02005478                __muldi3
 .text          0x020054dc      0x19c /opt/wonderful/toolchain/gcc-arm-none-eabi/lib/gcc/arm-none-eabi/13.2.0/thumb/libgcc.a(_udivmoddi4.o)
                0x020054dc                __udivmoddi4
 *(EXCLUDE_FILE(*.twl* *.vectors* *.itcm*) .stub)
 *(EXCLUDE_FILE(*.twl* *.vectors* *.itcm*) .text.*)
 .text._Z23load_minigame_signaturev
                0x02005678       0xac build/source/main.cpp.o
                0x02005678                _Z23load_minigame_signaturev
 .text._Z23minigame_main_signaturev
                0x02005724       0xc0 build/source/main.cpp.o
                0x02005724                _Z23minigame_main_signaturev
 .text._Z13init_nitro_fsv
                0x020057e4       0x40 build/source/main.cpp.o
                0x020057e4                _Z13init_nitro_fsv
 .text._Z7init_nfv
                0x02005824       0x34 build/source/main.cpp.o
                0x02005824                _Z7init_nfv
 .text._Z17load_title_screenv
                0x02005858       0x30 build/source/main.cpp.o
                0x02005858                _Z17load_title_screenv
 .text._Z19unload_title_screenv
                0x02005888       0x14 build/source/main.cpp.o
                0x02005888                _Z19unload_title_screenv
 .text._Z10main_titlev
                0x0200589c       0x70 build/source/main.cpp.o
                0x0200589c                _Z10main_titlev
 .text.startup.main
                0x0200590c       0x14 build/source/main.cpp.o
                0x0200590c                main
 .text.NF_Set2D
                0x02005920       0x64 /opt/wonderful/thirdparty/blocksds/external/nflib/lib/libnflib.a(nf_2d.c.o)
                0x02005920                NF_Set2D
 .text.NF_ShowBg
                0x02005984       0x74 /opt/wonderful/thirdparty/blocksds/external/nflib/lib/libnflib.a(nf_2d.c.o)
                0x02005984                NF_ShowBg
 .text.NF_HideBg
                0x020059f8       0x9c /opt/wonderful/thirdparty/blocksds/external/nflib/lib/libnflib.a(nf_2d.c.o)
                0x020059f8                NF_HideBg
 .text.NF_ScrollBg
                0x02005a94      0x2fc /opt/wonderful/thirdparty/blocksds/external/nflib/lib/libnflib.a(nf_2d.c.o)
                0x02005a94                NF_ScrollBg
 .text.NF_Error
                0x02005d90      0x2a4 /opt/wonderful/thirdparty/blocksds/external/nflib/lib/libnflib.a(nf_basic.c.o)
                0x02005d90                NF_Error
 .text.NF_SetRootFolder
                0x02006034      0x1dc /opt/wonderful/thirdparty/blocksds/external/nflib/lib/libnflib.a(nf_basic.c.o)
                0x02006034                NF_SetRootFolder
 .text.NF_DmaMemCopy
                0x02006210       0x7c /opt/wonderful/thirdparty/blocksds/external/nflib/lib/libnflib.a(nf_basic.c.o)
                0x02006210                NF_DmaMemCopy
 .text.NF_FileLoad
                0x0200628c       0x7c /opt/wonderful/thirdparty/blocksds/external/nflib/lib/libnflib.a(nf_basic.c.o)
                0x0200628c                NF_FileLoad
 .text.NF_InitSpriteBuffers
                0x02006308       0x5c /opt/wonderful/thirdparty/blocksds/external/nflib/lib/libnflib.a(nf_sprite256.c.o)
                0x02006308                NF_InitSpriteBuffers
 .text.NF_InitSpriteSys
                0x02006364      0x210 /opt/wonderful/thirdparty/blocksds/external/nflib/lib/libnflib.a(nf_sprite256.c.o)
                0x02006364                NF_InitSpriteSys
 .text.NF_LoadSpriteGfx
                0x02006574       0x98 /opt/wonderful/thirdparty/blocksds/external/nflib/lib/libnflib.a(nf_sprite256.c.o)
                0x02006574                NF_LoadSpriteGfx
 .text.NF_LoadSpritePal
                0x0200660c       0x80 /opt/wonderful/thirdparty/blocksds/external/nflib/lib/libnflib.a(nf_sprite256.c.o)
                0x0200660c                NF_LoadSpritePal
 .text.NF_VramSpriteGfx
                0x0200668c      0x2a4 /opt/wonderful/thirdparty/blocksds/external/nflib/lib/libnflib.a(nf_sprite256.c.o)
                0x0200668c                NF_VramSpriteGfx
 .text.NF_VramSpritePal
                0x02006930       0xb0 /opt/wonderful/thirdparty/blocksds/external/nflib/lib/libnflib.a(nf_sprite256.c.o)
                0x02006930                NF_VramSpritePal
 .text.NF_CreateSprite
                0x020069e0      0x1cc /opt/wonderful/thirdparty/blocksds/external/nflib/lib/libnflib.a(nf_sprite256.c.o)
                0x020069e0                NF_CreateSprite
 .text.NF_DeleteSprite
                0x02006bac       0x80 /opt/wonderful/thirdparty/blocksds/external/nflib/lib/libnflib.a(nf_sprite256.c.o)
                0x02006bac                NF_DeleteSprite
 .text.NF_SpriteOamSet
                0x02006c2c       0xc4 /opt/wonderful/thirdparty/blocksds/external/nflib/lib/libnflib.a(nf_sprite256.c.o)
                0x02006c2c                NF_SpriteOamSet
 .text.NF_InitTextSys
                0x02006cf0       0x34 /opt/wonderful/thirdparty/blocksds/external/nflib/lib/libnflib.a(nf_text.c.o)
                0x02006cf0                NF_InitTextSys
 .text.NF_LoadTextFont
                0x02006d24      0x1b0 /opt/wonderful/thirdparty/blocksds/external/nflib/lib/libnflib.a(nf_text.c.o)
                0x02006d24                NF_LoadTextFont
 .text.NF_CreateTextLayer
                0x02006ed4       0x8c /opt/wonderful/thirdparty/blocksds/external/nflib/lib/libnflib.a(nf_text.c.o)
                0x02006ed4                NF_CreateTextLayer
 .text.NF_WriteText
                0x02006f60      0x2d0 /opt/wonderful/thirdparty/blocksds/external/nflib/lib/libnflib.a(nf_text.c.o)
                0x02006f60                NF_WriteText
 .text.NF_UpdateTextLayers
                0x02007230       0x4c /opt/wonderful/thirdparty/blocksds/external/nflib/lib/libnflib.a(nf_text.c.o)
                0x02007230                NF_UpdateTextLayers
 .text.NF_InitTiledBgBuffers
                0x0200727c       0x94 /opt/wonderful/thirdparty/blocksds/external/nflib/lib/libnflib.a(nf_tiledbg.c.o)
                0x0200727c                NF_InitTiledBgBuffers
 .text.NF_InitTiledBgSys
                0x02007310      0x120 /opt/wonderful/thirdparty/blocksds/external/nflib/lib/libnflib.a(nf_tiledbg.c.o)
                0x02007310                NF_InitTiledBgSys
 .text.NF_LoadTiledBg
                0x02007430      0x1ac /opt/wonderful/thirdparty/blocksds/external/nflib/lib/libnflib.a(nf_tiledbg.c.o)
                0x02007430                NF_LoadTiledBg
 .text.NF_DeleteTiledBg
                0x020075dc      0x198 /opt/wonderful/thirdparty/blocksds/external/nflib/lib/libnflib.a(nf_tiledbg.c.o)
                0x020075dc                NF_DeleteTiledBg
 .text.NF_CreateTiledBg
                0x02007774      0x578 /opt/wonderful/thirdparty/blocksds/external/nflib/lib/libnflib.a(nf_tiledbg.c.o)
                0x02007774                NF_CreateTiledBg
 .text.NF_GetTileMapAddress
                0x02007cec       0x88 /opt/wonderful/thirdparty/blocksds/external/nflib/lib/libnflib.a(nf_tiledbg.c.o)
                0x02007cec                NF_GetTileMapAddress
 .text.NF_SetTileOfMap
                0x02007d74       0x40 /opt/wonderful/thirdparty/blocksds/external/nflib/lib/libnflib.a(nf_tiledbg.c.o)
                0x02007d74                NF_SetTileOfMap
 .text.NF_UpdateVramMap
                0x02007db4       0xf8 /opt/wonderful/thirdparty/blocksds/external/nflib/lib/libnflib.a(nf_tiledbg.c.o)
                0x02007db4                NF_UpdateVramMap
 .text.NF_RotateTileGfx
                0x02007eac      0x104 /opt/wonderful/thirdparty/blocksds/external/nflib/lib/libnflib.a(nf_tiledbg.c.o)
                0x02007eac                NF_RotateTileGfx
 .text.swiWaitForVBlank
                0x02007fb0        0x8 /opt/wonderful/thirdparty/blocksds/core/libs/libnds/lib/libnds9.a(IntrWait.s.o)
                0x02007fb0                swiWaitForVBlank
 .text.swiIntrWait
                0x02007fb8       0x70 /opt/wonderful/thirdparty/blocksds/core/libs/libnds/lib/libnds9.a(IntrWait.s.o)
                0x02007fb8                swiIntrWait
 .text.__libnds_mpu_setup
                0x02008028      0x168 /opt/wonderful/thirdparty/blocksds/core/libs/libnds/lib/libnds9.a(mpu_setup.s.o)
                0x02008028                __libnds_mpu_setup
 .text.memUncached
                0x02008190       0x20 /opt/wonderful/thirdparty/blocksds/core/libs/libnds/lib/libnds9.a(mpu_setup.s.o)
                0x02008190                memUncached
 .text.dmaSetParams
                0x020081b0       0x1c /opt/wonderful/thirdparty/blocksds/core/libs/libnds/lib/libnds9.a(dma.s.o)
                0x020081b0                dmaSetParams
 .text.__aeabi_memcpy
                0x020081cc       0xdc /opt/wonderful/thirdparty/blocksds/core/libs/libnds/lib/libnds9.a(memcpy.s.o)
                0x020081cc                __aeabi_memcpy
                0x02008204                __aeabi_memcpy4
                0x02008204                __aeabi_memcpy8
                0x02008270                __ndsabi_memcpy2
                0x02008294                __ndsabi_memcpy1
 .text.memcpy   0x020082a8       0x10 /opt/wonderful/thirdparty/blocksds/core/libs/libnds/lib/libnds9.a(memcpy.s.o)
                0x020082a8                memcpy
 .text.__aeabi_memset
                0x020082b8       0x9c /opt/wonderful/thirdparty/blocksds/core/libs/libnds/lib/libnds9.a(memset.s.o)
                0x020082b8                __aeabi_memset
                0x020082dc                __aeabi_memset8
                0x020082dc                __aeabi_memset4
                0x020082e8                __ndsabi_wordset4
                0x020082ec                __ndsabi_lwordset4
 .text.__ndsabi_memset1
                0x02008354       0x10 /opt/wonderful/thirdparty/blocksds/core/libs/libnds/lib/libnds9.a(memset.s.o)
                0x02008354                __ndsabi_memset1
 .text.memset   0x02008364       0x1c /opt/wonderful/thirdparty/blocksds/core/libs/libnds/lib/libnds9.a(memset.s.o)
                0x02008364                memset
 .text.touchRead
                0x02008380       0x3c /opt/wonderful/thirdparty/blocksds/core/libs/libnds/lib/libnds9.a(touch.c.o)
                0x02008380                touchRead
 .text.oamInit  0x020083bc      0x100 /opt/wonderful/thirdparty/blocksds/core/libs/libnds/lib/libnds9.a(sprite.c.o)
                0x020083bc                oamInit
 .text.oamGfxPtrToOffset
                0x020084bc       0x34 /opt/wonderful/thirdparty/blocksds/core/libs/libnds/lib/libnds9.a(sprite.c.o)
                0x020084bc                oamGfxPtrToOffset
 .text.oamSet   0x020084f0      0x104 /opt/wonderful/thirdparty/blocksds/core/libs/libnds/lib/libnds9.a(sprite.c.o)
                0x020084f0                oamSet
 .text.oamUpdate
                0x020085f4       0x50 /opt/wonderful/thirdparty/blocksds/core/libs/libnds/lib/libnds9.a(sprite.c.o)
                0x020085f4                oamUpdate
 .text.oamAllocReset
                0x02008644       0x1c /opt/wonderful/thirdparty/blocksds/core/libs/libnds/lib/libnds9.a(sprite_alloc.c.o)
                0x02008644                oamAllocReset
 .text.setBrightness
                0x02008660       0x40 /opt/wonderful/thirdparty/blocksds/core/libs/libnds/lib/libnds9.a(video.c.o)
                0x02008660                setBrightness
 .text.vramDefault
                0x020086a0       0xc8 /opt/wonderful/thirdparty/blocksds/core/libs/libnds/lib/libnds9.a(video.c.o)
                0x020086a0                vramDefault
 .text.scanKeys
                0x02008768       0xb0 /opt/wonderful/thirdparty/blocksds/core/libs/libnds/lib/libnds9.a(keys.c.o)
                0x02008768                scanKeys
 .text.keysHeld
                0x02008818        0xc /opt/wonderful/thirdparty/blocksds/core/libs/libnds/lib/libnds9.a(keys.c.o)
                0x02008818                keysHeld
 .text.keysDown
                0x02008824       0x14 /opt/wonderful/thirdparty/blocksds/core/libs/libnds/lib/libnds9.a(keys.c.o)
                0x02008824                keysDown
 .text.keysCurrent
                0x02008838       0x60 /opt/wonderful/thirdparty/blocksds/core/libs/libnds/lib/libnds9.a(keys.c.o)
                0x02008838                keysCurrent
 .text.initSystem
                0x02008898      0x1a8 /opt/wonderful/thirdparty/blocksds/core/libs/libnds/lib/libnds9.a(initSystem.c.o)
                0x02008898                initSystem
 .text.newRow   0x02008a40       0xdc /opt/wonderful/thirdparty/blocksds/core/libs/libnds/lib/libnds9.a(console.c.o)
 .text.consolePrintChar
                0x02008b1c       0xe0 /opt/wonderful/thirdparty/blocksds/core/libs/libnds/lib/libnds9.a(console.c.o)
                0x02008b1c                consolePrintChar
 .text.con_write
                0x02008bfc      0x344 /opt/wonderful/thirdparty/blocksds/core/libs/libnds/lib/libnds9.a(console.c.o)
 .text.consoleLoadFont
                0x02008f40      0x374 /opt/wonderful/thirdparty/blocksds/core/libs/libnds/lib/libnds9.a(console.c.o)
                0x02008f40                consoleLoadFont
 .text.consoleInit
                0x020092b4      0x194 /opt/wonderful/thirdparty/blocksds/core/libs/libnds/lib/libnds9.a(console.c.o)
                0x020092b4                consoleInit
 .text.consoleDemoInit
                0x02009448       0x48 /opt/wonderful/thirdparty/blocksds/core/libs/libnds/lib/libnds9.a(console.c.o)
                0x02009448                consoleDemoInit
 .text.sinLutLookup
                0x02009490       0x4c /opt/wonderful/thirdparty/blocksds/core/libs/libnds/lib/libnds9.a(trig.c.o)
                0x02009490                sinLutLookup
 .text.sinLerp  0x020094dc       0x38 /opt/wonderful/thirdparty/blocksds/core/libs/libnds/lib/libnds9.a(trig.c.o)
                0x020094dc                sinLerp
 .text.cosLerp  0x02009514       0x48 /opt/wonderful/thirdparty/blocksds/core/libs/libnds/lib/libnds9.a(trig.c.o)
                0x02009514                cosLerp
 .text.open     0x0200955c       0xf0 /opt/wonderful/thirdparty/blocksds/core/libs/libnds/lib/libnds9.a(filesystem.c.o)
                0x0200955c                open
 .text.read     0x0200964c       0x44 /opt/wonderful/thirdparty/blocksds/core/libs/libnds/lib/libnds9.a(filesystem.c.o)
                0x0200964c                read
 .text.write    0x02009690       0x54 /opt/wonderful/thirdparty/blocksds/core/libs/libnds/lib/libnds9.a(filesystem.c.o)
                0x02009690                write
 .text.close    0x020096e4       0x50 /opt/wonderful/thirdparty/blocksds/core/libs/libnds/lib/libnds9.a(filesystem.c.o)
                0x020096e4                close
 .text.lseek    0x02009734       0x70 /opt/wonderful/thirdparty/blocksds/core/libs/libnds/lib/libnds9.a(filesystem.c.o)
                0x02009734                lseek
 .text.access   0x020097a4       0x80 /opt/wonderful/thirdparty/blocksds/core/libs/libnds/lib/libnds9.a(filesystem.c.o)
                0x020097a4                access
 .text.fatfs_error_to_posix
                0x02009824       0x24 /opt/wonderful/thirdparty/blocksds/core/libs/libnds/lib/libnds9.a(fatfs.c.o)
                0x02009824                fatfs_error_to_posix
 .text.get_dirname
                0x02009848       0x6c /opt/wonderful/thirdparty/blocksds/core/libs/libnds/lib/libnds9.a(fatfs.c.o)
                0x02009848                get_dirname
 .text.fatGetDefaultCwd
                0x020098b4       0x70 /opt/wonderful/thirdparty/blocksds/core/libs/libnds/lib/libnds9.a(fatfs.c.o)
                0x020098b4                fatGetDefaultCwd
 .text.fatInit.part.0
                0x02009924      0x108 /opt/wonderful/thirdparty/blocksds/core/libs/libnds/lib/libnds9.a(fatfs.c.o)
 .text.fatInitDefault
                0x02009a2c       0x24 /opt/wonderful/thirdparty/blocksds/core/libs/libnds/lib/libnds9.a(fatfs.c.o)
                0x02009a2c                fatInitDefault
 .text.fatInitLookupCache
                0x02009a50       0x5c /opt/wonderful/thirdparty/blocksds/core/libs/libnds/lib/libnds9.a(fatfs.c.o)
                0x02009a50                fatInitLookupCache
 .text.get_ldnumber
                0x02009aac       0xd0 /opt/wonderful/thirdparty/blocksds/core/libs/libnds/lib/libnds9.a(ff.c.o)
 .text.put_utf  0x02009b7c       0xec /opt/wonderful/thirdparty/blocksds/core/libs/libnds/lib/libnds9.a(ff.c.o)
 .text.get_fileinfo
                0x02009c68      0x1c0 /opt/wonderful/thirdparty/blocksds/core/libs/libnds/lib/libnds9.a(ff.c.o)
 .text.dir_clear
                0x02009e28      0x110 /opt/wonderful/thirdparty/blocksds/core/libs/libnds/lib/libnds9.a(ff.c.o)
 .text.unlock_volume.part.0.isra.0
                0x02009f38        0x8 /opt/wonderful/thirdparty/blocksds/core/libs/libnds/lib/libnds9.a(ff.c.o)
 .text.sync_fs  0x02009f40      0x11c /opt/wonderful/thirdparty/blocksds/core/libs/libnds/lib/libnds9.a(ff.c.o)
 .text.move_window
                0x0200a05c       0x6c /opt/wonderful/thirdparty/blocksds/core/libs/libnds/lib/libnds9.a(ff.c.o)
 .text.put_fat.part.0
                0x0200a0c8      0x11c /opt/wonderful/thirdparty/blocksds/core/libs/libnds/lib/libnds9.a(ff.c.o)
 .text.get_fat.isra.0
                0x0200a1e4       0xbc /opt/wonderful/thirdparty/blocksds/core/libs/libnds/lib/libnds9.a(ff.c.o)
 .text.remove_chain
                0x0200a2a0       0x90 /opt/wonderful/thirdparty/blocksds/core/libs/libnds/lib/libnds9.a(ff.c.o)
 .text.create_chain
                0x0200a330      0x120 /opt/wonderful/thirdparty/blocksds/core/libs/libnds/lib/libnds9.a(ff.c.o)
 .text.dir_next
                0x0200a450       0xdc /opt/wonderful/thirdparty/blocksds/core/libs/libnds/lib/libnds9.a(ff.c.o)
 .text.dir_sdi  0x0200a52c       0x9c /opt/wonderful/thirdparty/blocksds/core/libs/libnds/lib/libnds9.a(ff.c.o)
 .text.dir_find
                0x0200a5c8      0x1a8 /opt/wonderful/thirdparty/blocksds/core/libs/libnds/lib/libnds9.a(ff.c.o)
 .text.follow_path
                0x0200a770      0x50c /opt/wonderful/thirdparty/blocksds/core/libs/libnds/lib/libnds9.a(ff.c.o)
 .text.dir_register
                0x0200ac7c      0x31c /opt/wonderful/thirdparty/blocksds/core/libs/libnds/lib/libnds9.a(ff.c.o)
 .text.validate
                0x0200af98       0x5c /opt/wonderful/thirdparty/blocksds/core/libs/libnds/lib/libnds9.a(ff.c.o)
 .text.check_fs
                0x0200aff4      0x16c /opt/wonderful/thirdparty/blocksds/core/libs/libnds/lib/libnds9.a(ff.c.o)
 .text.mount_volume
                0x0200b160      0x3e8 /opt/wonderful/thirdparty/blocksds/core/libs/libnds/lib/libnds9.a(ff.c.o)
 .text.f_mount  0x0200b548       0xa4 /opt/wonderful/thirdparty/blocksds/core/libs/libnds/lib/libnds9.a(ff.c.o)
                0x0200b548                f_mount
 .text.f_open   0x0200b5ec      0x354 /opt/wonderful/thirdparty/blocksds/core/libs/libnds/lib/libnds9.a(ff.c.o)
                0x0200b5ec                f_open
 .text.f_read   0x0200b940      0x2c8 /opt/wonderful/thirdparty/blocksds/core/libs/libnds/lib/libnds9.a(ff.c.o)
                0x0200b940                f_read
 .text.f_write  0x0200bc08      0x308 /opt/wonderful/thirdparty/blocksds/core/libs/libnds/lib/libnds9.a(ff.c.o)
                0x0200bc08                f_write
 .text.f_sync   0x0200bf10       0xe4 /opt/wonderful/thirdparty/blocksds/core/libs/libnds/lib/libnds9.a(ff.c.o)
                0x0200bf10                f_sync
 .text.f_close  0x0200bff4       0x30 /opt/wonderful/thirdparty/blocksds/core/libs/libnds/lib/libnds9.a(ff.c.o)
                0x0200bff4                f_close
 .text.f_chdrive
                0x0200c024       0x24 /opt/wonderful/thirdparty/blocksds/core/libs/libnds/lib/libnds9.a(ff.c.o)
                0x0200c024                f_chdrive
 .text.f_chdir  0x0200c048       0xc4 /opt/wonderful/thirdparty/blocksds/core/libs/libnds/lib/libnds9.a(ff.c.o)
                0x0200c048                f_chdir
 .text.f_lseek  0x0200c10c      0x340 /opt/wonderful/thirdparty/blocksds/core/libs/libnds/lib/libnds9.a(ff.c.o)
                0x0200c10c                f_lseek
 .text.f_stat   0x0200c44c       0xc0 /opt/wonderful/thirdparty/blocksds/core/libs/libnds/lib/libnds9.a(ff.c.o)
                0x0200c44c                f_stat
 .text.ff_uni2oem
                0x0200c50c       0x44 /opt/wonderful/thirdparty/blocksds/core/libs/libnds/lib/libnds9.a(ffunicode.c.o)
                0x0200c50c                ff_uni2oem
 .text.ff_oem2uni
                0x0200c550       0x2c /opt/wonderful/thirdparty/blocksds/core/libs/libnds/lib/libnds9.a(ffunicode.c.o)
                0x0200c550                ff_oem2uni
 .text.ff_wtoupper
                0x0200c57c       0xcc /opt/wonderful/thirdparty/blocksds/core/libs/libnds/lib/libnds9.a(ffunicode.c.o)
                0x0200c57c                ff_wtoupper
 .text.ff_mutex_create
                0x0200c648       0x10 /opt/wonderful/thirdparty/blocksds/core/libs/libnds/lib/libnds9.a(ffsystem.c.o)
                0x0200c648                ff_mutex_create
 .text.ff_mutex_delete
                0x0200c658        0x4 /opt/wonderful/thirdparty/blocksds/core/libs/libnds/lib/libnds9.a(ffsystem.c.o)
                0x0200c658                ff_mutex_delete
 .text.ff_mutex_take
                0x0200c65c       0x1c /opt/wonderful/thirdparty/blocksds/core/libs/libnds/lib/libnds9.a(ffsystem.c.o)
                0x0200c65c                ff_mutex_take
 .text.ff_mutex_give
                0x0200c678       0x10 /opt/wonderful/thirdparty/blocksds/core/libs/libnds/lib/libnds9.a(ffsystem.c.o)
                0x0200c678                ff_mutex_give
 .text.disk_status
                0x0200c688       0x28 /opt/wonderful/thirdparty/blocksds/core/libs/libnds/lib/libnds9.a(diskio.c.o)
                0x0200c688                disk_status
 .text.disk_initialize
                0x0200c6b0       0x50 /opt/wonderful/thirdparty/blocksds/core/libs/libnds/lib/libnds9.a(diskio.c.o)
                0x0200c6b0                disk_initialize
 .text.disk_read
                0x0200c700       0xf8 /opt/wonderful/thirdparty/blocksds/core/libs/libnds/lib/libnds9.a(diskio.c.o)
                0x0200c700                disk_read
 .text.disk_write
                0x0200c7f8       0xc8 /opt/wonderful/thirdparty/blocksds/core/libs/libnds/lib/libnds9.a(diskio.c.o)
                0x0200c7f8                disk_write
 .text.disk_ioctl
                0x0200c8c0       0x2c /opt/wonderful/thirdparty/blocksds/core/libs/libnds/lib/libnds9.a(diskio.c.o)
                0x0200c8c0                disk_ioctl
 .text.get_fattime
                0x0200c8ec       0x40 /opt/wonderful/thirdparty/blocksds/core/libs/libnds/lib/libnds9.a(diskio.c.o)
                0x0200c8ec                get_fattime
 .text.cache_init
                0x0200c92c       0x9c /opt/wonderful/thirdparty/blocksds/core/libs/libnds/lib/libnds9.a(cache.c.o)
                0x0200c92c                cache_init
 .text.cache_sector_get
                0x0200c9c8       0x70 /opt/wonderful/thirdparty/blocksds/core/libs/libnds/lib/libnds9.a(cache.c.o)
                0x0200c9c8                cache_sector_get
 .text.cache_sector_add
                0x0200ca38      0x144 /opt/wonderful/thirdparty/blocksds/core/libs/libnds/lib/libnds9.a(cache.c.o)
                0x0200ca38                cache_sector_add
 .text.cache_sector_invalidate
                0x0200cb7c       0x44 /opt/wonderful/thirdparty/blocksds/core/libs/libnds/lib/libnds9.a(cache.c.o)
                0x0200cb7c                cache_sector_invalidate
 .text.nitrofs_read_internal
                0x0200cbc0       0x70 /opt/wonderful/thirdparty/blocksds/core/libs/libnds/lib/libnds9.a(nitrofs.c.o)
 .text.nitrofs_dir_state_init
                0x0200cc30       0x7c /opt/wonderful/thirdparty/blocksds/core/libs/libnds/lib/libnds9.a(nitrofs.c.o)
 .text.nitrofs_dir_state_next
                0x0200ccac       0xc0 /opt/wonderful/thirdparty/blocksds/core/libs/libnds/lib/libnds9.a(nitrofs.c.o)
 .text.nitrofs_dir_step
                0x0200cd6c       0xf4 /opt/wonderful/thirdparty/blocksds/core/libs/libnds/lib/libnds9.a(nitrofs.c.o)
 .text.nitrofs_use_for_path
                0x0200ce60       0x30 /opt/wonderful/thirdparty/blocksds/core/libs/libnds/lib/libnds9.a(nitrofs.c.o)
                0x0200ce60                nitrofs_use_for_path
 .text.nitrofs_path_resolve
                0x0200ce90       0x68 /opt/wonderful/thirdparty/blocksds/core/libs/libnds/lib/libnds9.a(nitrofs.c.o)
                0x0200ce90                nitrofs_path_resolve
 .text.nitrofs_chdir
                0x0200cef8       0x2c /opt/wonderful/thirdparty/blocksds/core/libs/libnds/lib/libnds9.a(nitrofs.c.o)
                0x0200cef8                nitrofs_chdir
 .text.nitrofs_read
                0x0200cf24       0x30 /opt/wonderful/thirdparty/blocksds/core/libs/libnds/lib/libnds9.a(nitrofs.c.o)
                0x0200cf24                nitrofs_read
 .text.nitrofs_lseek
                0x0200cf54       0x54 /opt/wonderful/thirdparty/blocksds/core/libs/libnds/lib/libnds9.a(nitrofs.c.o)
                0x0200cf54                nitrofs_lseek
 .text.nitrofs_close
                0x0200cfa8       0x10 /opt/wonderful/thirdparty/blocksds/core/libs/libnds/lib/libnds9.a(nitrofs.c.o)
                0x0200cfa8                nitrofs_close
 .text.nitrofs_open
                0x0200cfb8       0xac /opt/wonderful/thirdparty/blocksds/core/libs/libnds/lib/libnds9.a(nitrofs.c.o)
                0x0200cfb8                nitrofs_open
 .text.nitroFSInit
                0x0200d064      0x144 /opt/wonderful/thirdparty/blocksds/core/libs/libnds/lib/libnds9.a(nitrofs.c.o)
                0x0200d064                nitroFSInit
 .text.build_argv
                0x0200d1a8       0x58 /opt/wonderful/thirdparty/blocksds/core/libs/libnds/lib/libnds9.a(crt0_argv.c.o)
                0x0200d1a8                build_argv
 .text.chdir    0x0200d200      0x114 /opt/wonderful/thirdparty/blocksds/core/libs/libnds/lib/libnds9.a(chdir.c.o)
                0x0200d200                chdir
 .text.putc_buffered
                0x0200d314       0x98 /opt/wonderful/thirdparty/blocksds/core/libs/libnds/lib/libnds9.a(iob.c.o)
 .text.stdout_putc_buffered
                0x0200d3ac       0x20 /opt/wonderful/thirdparty/blocksds/core/libs/libnds/lib/libnds9.a(iob.c.o)
 .text.stderr_putc_buffered
                0x0200d3cc       0x20 /opt/wonderful/thirdparty/blocksds/core/libs/libnds/lib/libnds9.a(iob.c.o)
 .text.stdin_getc_keyboard
                0x0200d3ec       0xe4 /opt/wonderful/thirdparty/blocksds/core/libs/libnds/lib/libnds9.a(iob.c.o)
 .text.dldi_arm7_write_sectors
                0x0200d4d0       0x64 /opt/wonderful/thirdparty/blocksds/core/libs/libnds/lib/libnds9.a(dldi.c.o)
                0x0200d4d0                dldi_arm7_write_sectors
 .text.dldi_arm7_is_inserted
                0x0200d534       0x3c /opt/wonderful/thirdparty/blocksds/core/libs/libnds/lib/libnds9.a(dldi.c.o)
                0x0200d534                dldi_arm7_is_inserted
 .text.dldi_arm7_clear_status
                0x0200d570       0x3c /opt/wonderful/thirdparty/blocksds/core/libs/libnds/lib/libnds9.a(dldi.c.o)
                0x0200d570                dldi_arm7_clear_status
 .text.dldi_arm7_shutdown
                0x0200d5ac       0x3c /opt/wonderful/thirdparty/blocksds/core/libs/libnds/lib/libnds9.a(dldi.c.o)
                0x0200d5ac                dldi_arm7_shutdown
 .text.dldi_arm7_startup
                0x0200d5e8       0x50 /opt/wonderful/thirdparty/blocksds/core/libs/libnds/lib/libnds9.a(dldi.c.o)
                0x0200d5e8                dldi_arm7_startup
 .text.dldi_arm7_read_sectors
                0x0200d638       0x64 /opt/wonderful/thirdparty/blocksds/core/libs/libnds/lib/libnds9.a(dldi.c.o)
                0x0200d638                dldi_arm7_read_sectors
 .text.dldiGetInternal
                0x0200d69c       0xb0 /opt/wonderful/thirdparty/blocksds/core/libs/libnds/lib/libnds9.a(dldi.c.o)
                0x0200d69c                dldiGetInternal
 .text.dldiGetStubDataEnd
                0x0200d74c       0x1c /opt/wonderful/thirdparty/blocksds/core/libs/libnds/lib/libnds9.a(dldi.c.o)
                0x0200d74c                dldiGetStubDataEnd
 .text.dldiGetStubEnd
                0x0200d768        0x8 /opt/wonderful/thirdparty/blocksds/core/libs/libnds/lib/libnds9.a(dldi.c.o)
                0x0200d768                dldiGetStubEnd
 .text.fifo_buffer_enqueue_block
                0x0200d770       0x44 /opt/wonderful/thirdparty/blocksds/core/libs/libnds/lib/libnds9.a(fifosystem.c.o)
 .text.fifo_buffer_wait_block
                0x0200d7b4       0x80 /opt/wonderful/thirdparty/blocksds/core/libs/libnds/lib/libnds9.a(fifosystem.c.o)
 .text.fifoInternalSend.part.0
                0x0200d834       0xcc /opt/wonderful/thirdparty/blocksds/core/libs/libnds/lib/libnds9.a(fifosystem.c.o)
 .text.fifoInternalSendInterrupt
                0x0200d900       0xb0 /opt/wonderful/thirdparty/blocksds/core/libs/libnds/lib/libnds9.a(fifosystem.c.o)
 .text.fifoSetValue32Handler
                0x0200d9b0       0xd4 /opt/wonderful/thirdparty/blocksds/core/libs/libnds/lib/libnds9.a(fifosystem.c.o)
                0x0200d9b0                fifoSetValue32Handler
 .text.fifoSendValue32
                0x0200da84       0x50 /opt/wonderful/thirdparty/blocksds/core/libs/libnds/lib/libnds9.a(fifosystem.c.o)
                0x0200da84                fifoSendValue32
 .text.fifoSendDatamsg
                0x0200dad4       0x94 /opt/wonderful/thirdparty/blocksds/core/libs/libnds/lib/libnds9.a(fifosystem.c.o)
                0x0200dad4                fifoSendDatamsg
 .text.fifoGetValue32
                0x0200db68       0x70 /opt/wonderful/thirdparty/blocksds/core/libs/libnds/lib/libnds9.a(fifosystem.c.o)
                0x0200db68                fifoGetValue32
 .text.fifoGetDatamsg
                0x0200dbd8       0xe8 /opt/wonderful/thirdparty/blocksds/core/libs/libnds/lib/libnds9.a(fifosystem.c.o)
                0x0200dbd8                fifoGetDatamsg
 .text.fifoInternalRecvInterrupt
                0x0200dcc0      0x310 /opt/wonderful/thirdparty/blocksds/core/libs/libnds/lib/libnds9.a(fifosystem.c.o)
 .text.fifoSetDatamsgHandler
                0x0200dfd0       0x9c /opt/wonderful/thirdparty/blocksds/core/libs/libnds/lib/libnds9.a(fifosystem.c.o)
                0x0200dfd0                fifoSetDatamsgHandler
 .text.fifoCheckValue32
                0x0200e06c       0x24 /opt/wonderful/thirdparty/blocksds/core/libs/libnds/lib/libnds9.a(fifosystem.c.o)
                0x0200e06c                fifoCheckValue32
 .text.fifoInit
                0x0200e090      0x114 /opt/wonderful/thirdparty/blocksds/core/libs/libnds/lib/libnds9.a(fifosystem.c.o)
                0x0200e090                fifoInit
 .text.fifoMutexAcquire
                0x0200e1a4       0x30 /opt/wonderful/thirdparty/blocksds/core/libs/libnds/lib/libnds9.a(fifosystem.c.o)
                0x0200e1a4                fifoMutexAcquire
 .text.fifoMutexRelease
                0x0200e1d4       0x14 /opt/wonderful/thirdparty/blocksds/core/libs/libnds/lib/libnds9.a(fifosystem.c.o)
                0x0200e1d4                fifoMutexRelease
 .text.irqDummy
                0x0200e1e8        0x4 /opt/wonderful/thirdparty/blocksds/core/libs/libnds/lib/libnds9.a(interrupts.c.o)
                0x0200e1e8                irqDummy
 .text.irqSet   0x0200e1ec       0x78 /opt/wonderful/thirdparty/blocksds/core/libs/libnds/lib/libnds9.a(interrupts.c.o)
                0x0200e1ec                irqSet
 .text.irqInit  0x0200e264       0x50 /opt/wonderful/thirdparty/blocksds/core/libs/libnds/lib/libnds9.a(interrupts.c.o)
                0x0200e264                irqInit
 .text.irqEnable
                0x0200e2b4       0x64 /opt/wonderful/thirdparty/blocksds/core/libs/libnds/lib/libnds9.a(interrupts.c.o)
                0x0200e2b4                irqEnable
 .text.systemErrorExit
                0x0200e318        0x4 /opt/wonderful/thirdparty/blocksds/core/libs/libnds/lib/libnds9.a(libnds_exit.c.o)
                0x0200e318                systemErrorExit
 .text.__libnds_exit
                0x0200e31c       0x78 /opt/wonderful/thirdparty/blocksds/core/libs/libnds/lib/libnds9.a(libnds_exit.c.o)
                0x0200e31c                __libnds_exit
 .text.cardPolledTransfer
                0x0200e394       0x54 /opt/wonderful/thirdparty/blocksds/core/libs/libnds/lib/libnds9.a(card.c.o)
                0x0200e394                cardPolledTransfer
 .text.cardRead
                0x0200e3e8      0x120 /opt/wonderful/thirdparty/blocksds/core/libs/libnds/lib/libnds9.a(card.c.o)
                0x0200e3e8                cardRead
 .text.sbrk     0x0200e508       0x5c /opt/wonderful/thirdparty/blocksds/core/libs/libnds/lib/libnds9.a(sbrk.c.o)
                0x0200e508                sbrk
 .text.cothread_delete_internal
                0x0200e564       0x3c /opt/wonderful/thirdparty/blocksds/core/libs/libnds/lib/libnds9.a(threads.c.o)
 .text.cothread_main
                0x0200e5a0       0x10 /opt/wonderful/thirdparty/blocksds/core/libs/libnds/lib/libnds9.a(threads.c.o)
                0x0200e5a0                cothread_main
 .text.cothread_yield
                0x0200e5b0       0x14 /opt/wonderful/thirdparty/blocksds/core/libs/libnds/lib/libnds9.a(threads.c.o)
                0x0200e5b0                cothread_yield
 .text.cothread_yield_irq
                0x0200e5c4       0x18 /opt/wonderful/thirdparty/blocksds/core/libs/libnds/lib/libnds9.a(threads.c.o)
                0x0200e5c4                cothread_yield_irq
 .text.cothread_start
                0x0200e5dc       0xe8 /opt/wonderful/thirdparty/blocksds/core/libs/libnds/lib/libnds9.a(threads.c.o)
                0x0200e5dc                cothread_start
 .text.__ndsabi_coro_resume
                0x0200e6c4       0x18 /opt/wonderful/thirdparty/blocksds/core/libs/libnds/lib/libnds9.a(coroutine.s.o)
                0x0200e6c4                __ndsabi_coro_resume
 .text.__ndsabi_coro_yield
                0x0200e6dc       0x1c /opt/wonderful/thirdparty/blocksds/core/libs/libnds/lib/libnds9.a(coroutine.s.o)
                0x0200e6dc                __ndsabi_coro_yield
 .text.__ndsabi_coro_pop_noctx
                0x0200e6f8       0x34 /opt/wonderful/thirdparty/blocksds/core/libs/libnds/lib/libnds9.a(coroutine.s.o)
                0x0200e6f8                __ndsabi_coro_pop_noctx
 .text.__aeabi_read_tp
                0x0200e72c        0xc /opt/wonderful/thirdparty/blocksds/core/libs/libnds/lib/libnds9.a(aeabi_read_tp.s.o)
                0x0200e72c                __aeabi_read_tp
 .text.checkIfText
                0x0200e738       0x5c /opt/wonderful/thirdparty/blocksds/core/libs/libnds/lib/libnds9.a(background.c.o)
                0x0200e738                checkIfText
 .text.bgUpdate
                0x0200e794       0xf4 /opt/wonderful/thirdparty/blocksds/core/libs/libnds/lib/libnds9.a(background.c.o)
                0x0200e794                bgUpdate
 .text.bgInit_call
                0x0200e888       0xac /opt/wonderful/thirdparty/blocksds/core/libs/libnds/lib/libnds9.a(background.c.o)
                0x0200e888                bgInit_call
 .text.bgInitSub_call
                0x0200e934       0xb4 /opt/wonderful/thirdparty/blocksds/core/libs/libnds/lib/libnds9.a(background.c.o)
                0x0200e934                bgInitSub_call
 .text.systemValueHandler
                0x0200e9e8       0x44 /opt/wonderful/thirdparty/blocksds/core/libs/libnds/lib/libnds9.a(system.c.o)
                0x0200e9e8                systemValueHandler
 .text.systemMsgHandler
                0x0200ea2c       0x78 /opt/wonderful/thirdparty/blocksds/core/libs/libnds/lib/libnds9.a(system.c.o)
                0x0200ea2c                systemMsgHandler
 .text.powerOn  0x0200eaa4       0x2c /opt/wonderful/thirdparty/blocksds/core/libs/libnds/lib/libnds9.a(system.c.o)
                0x0200eaa4                powerOn
 .text.keyboardGetKey
                0x0200ead0       0x5c /opt/wonderful/thirdparty/blocksds/core/libs/libnds/lib/libnds9.a(keyboard.c.o)
                0x0200ead0                keyboardGetKey
 .text.keyboardShiftState
                0x0200eb2c       0x88 /opt/wonderful/thirdparty/blocksds/core/libs/libnds/lib/libnds9.a(keyboard.c.o)
                0x0200eb2c                keyboardShiftState
 .text.swapKeyGfx
                0x0200ebb4      0x164 /opt/wonderful/thirdparty/blocksds/core/libs/libnds/lib/libnds9.a(keyboard.c.o)
                0x0200ebb4                swapKeyGfx
 .text.keyboardUpdate
                0x0200ed18       0xf0 /opt/wonderful/thirdparty/blocksds/core/libs/libnds/lib/libnds9.a(keyboard.c.o)
                0x0200ed18                keyboardUpdate
 .text.keyboardShow
                0x0200ee08       0xd8 /opt/wonderful/thirdparty/blocksds/core/libs/libnds/lib/libnds9.a(keyboard.c.o)
                0x0200ee08                keyboardShow
 .text.keyboardHide
                0x0200eee0       0x8c /opt/wonderful/thirdparty/blocksds/core/libs/libnds/lib/libnds9.a(keyboard.c.o)
                0x0200eee0                keyboardHide
 .text.__ndsabi_coro_make_noctx
                0x0200ef6c       0x24 /opt/wonderful/thirdparty/blocksds/core/libs/libnds/lib/libnds9.a(coroutine.c.o)
                0x0200ef6c                __ndsabi_coro_make_noctx
 .text.calloc   0x0200ef90       0xb8 /opt/wonderful/toolchain/gcc-arm-none-eabi/lib/gcc/arm-none-eabi/13.2.0/../../../../arm-none-eabi/lib/libc.a(malloc-calloc.c.o)
                0x0200ef90                calloc
 .text.malloc_trim
                0x0200f048       0xa0 /opt/wonderful/toolchain/gcc-arm-none-eabi/lib/gcc/arm-none-eabi/13.2.0/../../../../arm-none-eabi/lib/libc.a(malloc-free.c.o)
                0x0200f048                malloc_trim
 .text.free     0x0200f0e8      0x168 /opt/wonderful/toolchain/gcc-arm-none-eabi/lib/gcc/arm-none-eabi/13.2.0/../../../../arm-none-eabi/lib/libc.a(malloc-free.c.o)
                0x0200f0e8                __malloc_free
                0x0200f0e8                free
 .text.malloc   0x0200f250      0x434 /opt/wonderful/toolchain/gcc-arm-none-eabi/lib/gcc/arm-none-eabi/13.2.0/../../../../arm-none-eabi/lib/libc.a(malloc-malloc.c.o)
                0x0200f250                malloc
 .text.realloc  0x0200f684      0x360 /opt/wonderful/toolchain/gcc-arm-none-eabi/lib/gcc/arm-none-eabi/13.2.0/../../../../arm-none-eabi/lib/libc.a(malloc-realloc.c.o)
                0x0200f684                realloc
 .text.__libc_init_array
                0x0200f9e4       0x60 /opt/wonderful/toolchain/gcc-arm-none-eabi/lib/gcc/arm-none-eabi/13.2.0/../../../../arm-none-eabi/lib/libc.a(libc_misc_init.c.o)
                0x0200f9e4                __libc_init_array
 .text.__retarget_lock_init
                0x0200fa44        0x2 /opt/wonderful/toolchain/gcc-arm-none-eabi/lib/gcc/arm-none-eabi/13.2.0/../../../../arm-none-eabi/lib/libc.a(libc_misc_lock.c.o)
                0x0200fa44                __retarget_lock_init
 .text.__retarget_lock_close
                0x0200fa46        0x2 /opt/wonderful/toolchain/gcc-arm-none-eabi/lib/gcc/arm-none-eabi/13.2.0/../../../../arm-none-eabi/lib/libc.a(libc_misc_lock.c.o)
                0x0200fa46                __retarget_lock_close
 .text.__retarget_lock_acquire
                0x0200fa48        0x2 /opt/wonderful/toolchain/gcc-arm-none-eabi/lib/gcc/arm-none-eabi/13.2.0/../../../../arm-none-eabi/lib/libc.a(libc_misc_lock.c.o)
                0x0200fa48                __retarget_lock_acquire
 .text.__retarget_lock_acquire_recursive
                0x0200fa4a        0x2 /opt/wonderful/toolchain/gcc-arm-none-eabi/lib/gcc/arm-none-eabi/13.2.0/../../../../arm-none-eabi/lib/libc.a(libc_misc_lock.c.o)
                0x0200fa4a                __retarget_lock_acquire_recursive
 .text.__retarget_lock_release
                0x0200fa4c        0x2 /opt/wonderful/toolchain/gcc-arm-none-eabi/lib/gcc/arm-none-eabi/13.2.0/../../../../arm-none-eabi/lib/libc.a(libc_misc_lock.c.o)
                0x0200fa4c                __retarget_lock_release
 .text.__retarget_lock_release_recursive
                0x0200fa4e        0x2 /opt/wonderful/toolchain/gcc-arm-none-eabi/lib/gcc/arm-none-eabi/13.2.0/../../../../arm-none-eabi/lib/libc.a(libc_misc_lock.c.o)
                0x0200fa4e                __retarget_lock_release_recursive
 .text.exit     0x0200fa50       0x20 /opt/wonderful/toolchain/gcc-arm-none-eabi/lib/gcc/arm-none-eabi/13.2.0/../../../../arm-none-eabi/lib/libc.a(libc_stdlib_pico-exit.c.o)
                0x0200fa50                exit
 .text.memcmp   0x0200fa70       0x20 /opt/wonderful/toolchain/gcc-arm-none-eabi/lib/gcc/arm-none-eabi/13.2.0/../../../../arm-none-eabi/lib/libc.a(libc_string_memcmp.c.o)
                0x0200fa70                memcmp
 .text.strchr   0x0200fa90       0x1e /opt/wonderful/toolchain/gcc-arm-none-eabi/lib/gcc/arm-none-eabi/13.2.0/../../../../arm-none-eabi/lib/libc.a(libc_string_strchr.c.o)
                0x0200fa90                strchr
 .text.strdup   0x0200faae       0x24 /opt/wonderful/toolchain/gcc-arm-none-eabi/lib/gcc/arm-none-eabi/13.2.0/../../../../arm-none-eabi/lib/libc.a(libc_string_strdup.c.o)
                0x0200faae                strdup
 .text.strncmp  0x0200fad2       0x26 /opt/wonderful/toolchain/gcc-arm-none-eabi/lib/gcc/arm-none-eabi/13.2.0/../../../../arm-none-eabi/lib/libc.a(libc_string_strncmp.c.o)
                0x0200fad2                strncmp
 .text.strstr   0x0200faf8       0x30 /opt/wonderful/toolchain/gcc-arm-none-eabi/lib/gcc/arm-none-eabi/13.2.0/../../../../arm-none-eabi/lib/libc.a(libc_string_strstr.c.o)
                0x0200faf8                strstr
 .text.localtime
                0x0200fb28       0x1c /opt/wonderful/toolchain/gcc-arm-none-eabi/lib/gcc/arm-none-eabi/13.2.0/../../../../arm-none-eabi/lib/libc.a(libc_time_lcltime.c.o)
                0x0200fb28                localtime
 .text.localtime_r
                0x0200fb44      0x1fc /opt/wonderful/toolchain/gcc-arm-none-eabi/lib/gcc/arm-none-eabi/13.2.0/../../../../arm-none-eabi/lib/libc.a(libc_time_lcltime_r.c.o)
                0x0200fb44                localtime_r
 .text.time     0x0200fd40       0x2e /opt/wonderful/toolchain/gcc-arm-none-eabi/lib/gcc/arm-none-eabi/13.2.0/../../../../arm-none-eabi/lib/libc.a(libc_time_time.c.o)
                0x0200fd40                time
 *fill*         0x0200fd6e        0x2 ff
 .text.__tzcalc_limits
                0x0200fd70      0x180 /opt/wonderful/toolchain/gcc-arm-none-eabi/lib/gcc/arm-none-eabi/13.2.0/../../../../arm-none-eabi/lib/libc.a(libc_time_tzcalc_limits.c.o)
                0x0200fd70                __tzcalc_limits
 .text._tzset_unlocked
                0x0200fef0      0x3f4 /opt/wonderful/toolchain/gcc-arm-none-eabi/lib/gcc/arm-none-eabi/13.2.0/../../../../arm-none-eabi/lib/libc.a(libc_time_tzset.c.o)
                0x0200fef0                _tzset_unlocked
 .text.fclose   0x020102e4       0x20 /opt/wonderful/toolchain/gcc-arm-none-eabi/lib/gcc/arm-none-eabi/13.2.0/../../../../arm-none-eabi/lib/libc.a(libc_tinystdio_fclose.c.o)
                0x020102e4                fclose
 .text.fflush   0x02010304       0x1a /opt/wonderful/toolchain/gcc-arm-none-eabi/lib/gcc/arm-none-eabi/13.2.0/../../../../arm-none-eabi/lib/libc.a(libc_tinystdio_fflush.c.o)
                0x02010304                fflush
 .text.fileno   0x0201031e       0x10 /opt/wonderful/toolchain/gcc-arm-none-eabi/lib/gcc/arm-none-eabi/13.2.0/../../../../arm-none-eabi/lib/libc.a(libc_tinystdio_fileno.c.o)
                0x0201031e                fileno
 .text.fread    0x0201032e       0x9e /opt/wonderful/toolchain/gcc-arm-none-eabi/lib/gcc/arm-none-eabi/13.2.0/../../../../arm-none-eabi/lib/libc.a(libc_tinystdio_fread.c.o)
                0x0201032e                fread
 .text.fseek    0x020103cc       0x48 /opt/wonderful/toolchain/gcc-arm-none-eabi/lib/gcc/arm-none-eabi/13.2.0/../../../../arm-none-eabi/lib/libc.a(libc_tinystdio_fseek.c.o)
                0x020103cc                fseek
 .text.ftell    0x02010414       0x34 /opt/wonderful/toolchain/gcc-arm-none-eabi/lib/gcc/arm-none-eabi/13.2.0/../../../../arm-none-eabi/lib/libc.a(libc_tinystdio_ftell.c.o)
                0x02010414                ftell
 .text.printf   0x02010448       0x20 /opt/wonderful/toolchain/gcc-arm-none-eabi/lib/gcc/arm-none-eabi/13.2.0/../../../../arm-none-eabi/lib/libc.a(libc_tinystdio_printf.c.o)
                0x02010448                printf
 .text.puts     0x02010468       0x4c /opt/wonderful/toolchain/gcc-arm-none-eabi/lib/gcc/arm-none-eabi/13.2.0/../../../../arm-none-eabi/lib/libc.a(libc_tinystdio_puts.c.o)
                0x02010468                puts
 .text.rewind   0x020104b4       0x1a /opt/wonderful/toolchain/gcc-arm-none-eabi/lib/gcc/arm-none-eabi/13.2.0/../../../../arm-none-eabi/lib/libc.a(libc_tinystdio_rewind.c.o)
                0x020104b4                rewind
 .text.setvbuf  0x020104ce       0x20 /opt/wonderful/toolchain/gcc-arm-none-eabi/lib/gcc/arm-none-eabi/13.2.0/../../../../arm-none-eabi/lib/libc.a(libc_tinystdio_setvbuf.c.o)
                0x020104ce                setvbuf
 *fill*         0x020104ee        0x2 ff
 .text.snprintf
                0x020104f0       0x5c /opt/wonderful/toolchain/gcc-arm-none-eabi/lib/gcc/arm-none-eabi/13.2.0/../../../../arm-none-eabi/lib/libc.a(libc_tinystdio_snprintf.c.o)
                0x020104f0                snprintf
 .text.sprintf  0x0201054c       0x50 /opt/wonderful/toolchain/gcc-arm-none-eabi/lib/gcc/arm-none-eabi/13.2.0/../../../../arm-none-eabi/lib/libc.a(libc_tinystdio_sprintf.c.o)
                0x0201054c                sprintf
 .text.sscanf   0x0201059c       0x3c /opt/wonderful/toolchain/gcc-arm-none-eabi/lib/gcc/arm-none-eabi/13.2.0/../../../../arm-none-eabi/lib/libc.a(libc_tinystdio_sscanf.c.o)
                0x0201059c                sscanf
 .text.strtoul  0x020105d8      0x128 /opt/wonderful/toolchain/gcc-arm-none-eabi/lib/gcc/arm-none-eabi/13.2.0/../../../../arm-none-eabi/lib/libc.a(libc_tinystdio_strtoul.c.o)
                0x020105d8                strtoul
 .text.__ultoa_invert
                0x02010700       0x56 /opt/wonderful/toolchain/gcc-arm-none-eabi/lib/gcc/arm-none-eabi/13.2.0/../../../../arm-none-eabi/lib/libc.a(libc_tinystdio_vfprintf.c.o)
 *fill*         0x02010756        0x2 ff
 .text.skip_to_arg
                0x02010758      0x140 /opt/wonderful/toolchain/gcc-arm-none-eabi/lib/gcc/arm-none-eabi/13.2.0/../../../../arm-none-eabi/lib/libc.a(libc_tinystdio_vfprintf.c.o)
 .text.vfprintf
                0x02010898      0xa24 /opt/wonderful/toolchain/gcc-arm-none-eabi/lib/gcc/arm-none-eabi/13.2.0/../../../../arm-none-eabi/lib/libc.a(libc_tinystdio_vfprintf.c.o)
                0x02010898                __d_vfprintf
                0x02010898                vfprintf
 .text.scanf_getc
                0x020112bc       0x18 /opt/wonderful/toolchain/gcc-arm-none-eabi/lib/gcc/arm-none-eabi/13.2.0/../../../../arm-none-eabi/lib/libc.a(libc_tinystdio_vfscanf.c.o)
 .text.putval   0x020112d4       0x2e /opt/wonderful/toolchain/gcc-arm-none-eabi/lib/gcc/arm-none-eabi/13.2.0/../../../../arm-none-eabi/lib/libc.a(libc_tinystdio_vfscanf.c.o)
 .text.scanf_ungetc.isra.0
                0x02011302       0x18 /opt/wonderful/toolchain/gcc-arm-none-eabi/lib/gcc/arm-none-eabi/13.2.0/../../../../arm-none-eabi/lib/libc.a(libc_tinystdio_vfscanf.c.o)
 .text.skip_spaces
                0x0201131a       0x2e /opt/wonderful/toolchain/gcc-arm-none-eabi/lib/gcc/arm-none-eabi/13.2.0/../../../../arm-none-eabi/lib/libc.a(libc_tinystdio_vfscanf.c.o)
 .text.vfscanf  0x02011348      0x97c /opt/wonderful/toolchain/gcc-arm-none-eabi/lib/gcc/arm-none-eabi/13.2.0/../../../../arm-none-eabi/lib/libc.a(libc_tinystdio_vfscanf.c.o)
                0x02011348                __d_vfscanf
                0x02011348                vfscanf
 .text.mulShiftAll64
                0x02011cc4      0x1ea /opt/wonderful/toolchain/gcc-arm-none-eabi/lib/gcc/arm-none-eabi/13.2.0/../../../../arm-none-eabi/lib/libc.a(libc_tinystdio_dtoa_ryu.c.o)
 *fill*         0x02011eae        0x2 ff
 .text.div10    0x02011eb0       0x28 /opt/wonderful/toolchain/gcc-arm-none-eabi/lib/gcc/arm-none-eabi/13.2.0/../../../../arm-none-eabi/lib/libc.a(libc_tinystdio_dtoa_ryu.c.o)
 .text.__dtoa_engine
                0x02011ed8      0x494 /opt/wonderful/toolchain/gcc-arm-none-eabi/lib/gcc/arm-none-eabi/13.2.0/../../../../arm-none-eabi/lib/libc.a(libc_tinystdio_dtoa_ryu.c.o)
                0x02011ed8                __dtoa_engine
 .text.__pow5Factor
                0x0201236c       0x30 /opt/wonderful/toolchain/gcc-arm-none-eabi/lib/gcc/arm-none-eabi/13.2.0/../../../../arm-none-eabi/lib/libc.a(libc_tinystdio_ryu_table.c.o)
                0x0201236c                __pow5Factor
 .text.__double_computePow5
                0x0201239c      0x100 /opt/wonderful/toolchain/gcc-arm-none-eabi/lib/gcc/arm-none-eabi/13.2.0/../../../../arm-none-eabi/lib/libc.a(libc_tinystdio_ryu_table.c.o)
                0x0201239c                __double_computePow5
 .text.__double_computeInvPow5
                0x0201249c      0x104 /opt/wonderful/toolchain/gcc-arm-none-eabi/lib/gcc/arm-none-eabi/13.2.0/../../../../arm-none-eabi/lib/libc.a(libc_tinystdio_ryu_table.c.o)
                0x0201249c                __double_computeInvPow5
 .text.mulShift64
                0x020125a0       0x68 /opt/wonderful/toolchain/gcc-arm-none-eabi/lib/gcc/arm-none-eabi/13.2.0/../../../../arm-none-eabi/lib/libc.a(libc_tinystdio_atod_ryu.c.o)
 .text.__atod_engine
                0x02012608      0x164 /opt/wonderful/toolchain/gcc-arm-none-eabi/lib/gcc/arm-none-eabi/13.2.0/../../../../arm-none-eabi/lib/libc.a(libc_tinystdio_atod_ryu.c.o)
                0x02012608                __atod_engine
 .text.__atof_engine
                0x0201276c      0x122 /opt/wonderful/toolchain/gcc-arm-none-eabi/lib/gcc/arm-none-eabi/13.2.0/../../../../arm-none-eabi/lib/libc.a(libc_tinystdio_atof_ryu.c.o)
                0x0201276c                __atof_engine
 *fill*         0x0201288e        0x2 ff
 .text.__log2pow5
                0x02012890        0xc /opt/wonderful/toolchain/gcc-arm-none-eabi/lib/gcc/arm-none-eabi/13.2.0/../../../../arm-none-eabi/lib/libc.a(libc_tinystdio_ryu_log2pow5.c.o)
                0x02012890                __log2pow5
 .text.__ceil_log2pow5
                0x0201289c       0x10 /opt/wonderful/toolchain/gcc-arm-none-eabi/lib/gcc/arm-none-eabi/13.2.0/../../../../arm-none-eabi/lib/libc.a(libc_tinystdio_ryu_log2pow5.c.o)
                0x0201289c                __ceil_log2pow5
 .text.__log10Pow2
                0x020128ac        0xc /opt/wonderful/toolchain/gcc-arm-none-eabi/lib/gcc/arm-none-eabi/13.2.0/../../../../arm-none-eabi/lib/libc.a(libc_tinystdio_ryu_log10.c.o)
                0x020128ac                __log10Pow2
 .text.__log10Pow5
                0x020128b8        0xc /opt/wonderful/toolchain/gcc-arm-none-eabi/lib/gcc/arm-none-eabi/13.2.0/../../../../arm-none-eabi/lib/libc.a(libc_tinystdio_ryu_log10.c.o)
                0x020128b8                __log10Pow5
 .text.__pow5bits
                0x020128c4       0x10 /opt/wonderful/toolchain/gcc-arm-none-eabi/lib/gcc/arm-none-eabi/13.2.0/../../../../arm-none-eabi/lib/libc.a(libc_tinystdio_ryu_pow5bits.c.o)
                0x020128c4                __pow5bits
 .text.__umul128
                0x020128d4       0x74 /opt/wonderful/toolchain/gcc-arm-none-eabi/lib/gcc/arm-none-eabi/13.2.0/../../../../arm-none-eabi/lib/libc.a(libc_tinystdio_ryu_umul128.c.o)
                0x020128d4                __umul128
 .text.__shiftright128
                0x02012948       0x2c /opt/wonderful/toolchain/gcc-arm-none-eabi/lib/gcc/arm-none-eabi/13.2.0/../../../../arm-none-eabi/lib/libc.a(libc_tinystdio_ryu_umul128.c.o)
                0x02012948                __shiftright128
 .text.mulShift32
                0x02012974       0x4e /opt/wonderful/toolchain/gcc-arm-none-eabi/lib/gcc/arm-none-eabi/13.2.0/../../../../arm-none-eabi/lib/libc.a(libc_tinystdio_ryu_divpow2.c.o)
 .text.__mulPow5InvDivPow2
                0x020129c2       0x2c /opt/wonderful/toolchain/gcc-arm-none-eabi/lib/gcc/arm-none-eabi/13.2.0/../../../../arm-none-eabi/lib/libc.a(libc_tinystdio_ryu_divpow2.c.o)
                0x020129c2                __mulPow5InvDivPow2
 .text.__mulPow5divPow2
                0x020129ee       0x24 /opt/wonderful/toolchain/gcc-arm-none-eabi/lib/gcc/arm-none-eabi/13.2.0/../../../../arm-none-eabi/lib/libc.a(libc_tinystdio_ryu_divpow2.c.o)
                0x020129ee                __mulPow5divPow2
 .text.__picolibc_non_atomic_exchange_ungetc
                0x02012a12        0x8 /opt/wonderful/toolchain/gcc-arm-none-eabi/lib/gcc/arm-none-eabi/13.2.0/../../../../arm-none-eabi/lib/libc.a(libc_tinystdio_exchange.c.o)
                0x02012a12                __atomic_exchange_ungetc
                0x02012a12                __picolibc_non_atomic_exchange_ungetc
 .text.fopen    0x02012a1a       0x32 /opt/wonderful/toolchain/gcc-arm-none-eabi/lib/gcc/arm-none-eabi/13.2.0/../../../../arm-none-eabi/lib/libc.a(libc_tinystdio_fopen.c.o)
                0x02012a1a                fopen
 .text.fdopen   0x02012a4c       0xb4 /opt/wonderful/toolchain/gcc-arm-none-eabi/lib/gcc/arm-none-eabi/13.2.0/../../../../arm-none-eabi/lib/libc.a(libc_tinystdio_fdopen.c.o)
                0x02012a4c                fdopen
 .text.memmove  0x02012b00       0x28 /opt/wonderful/toolchain/gcc-arm-none-eabi/lib/gcc/arm-none-eabi/13.2.0/../../../../arm-none-eabi/lib/libc.a(memmove.c.o)
                0x02012b00                memmove
                0x02012b00                __aeabi_memmove8
                0x02012b00                __aeabi_memmove
                0x02012b00                __aeabi_memmove4
 .text.__libc_fini_array
                0x02012b28       0x3c /opt/wonderful/toolchain/gcc-arm-none-eabi/lib/gcc/arm-none-eabi/13.2.0/../../../../arm-none-eabi/lib/libc.a(libc_misc_fini.c.o)
                0x02012b28                __libc_fini_array
 .text.getenv   0x02012b64        0xe /opt/wonderful/toolchain/gcc-arm-none-eabi/lib/gcc/arm-none-eabi/13.2.0/../../../../arm-none-eabi/lib/libc.a(libc_stdlib_getenv.c.o)
                0x02012b64                getenv
 *fill*         0x02012b72        0x2 ff
 .text._findenv
                0x02012b74       0x80 /opt/wonderful/toolchain/gcc-arm-none-eabi/lib/gcc/arm-none-eabi/13.2.0/../../../../arm-none-eabi/lib/libc.a(libc_stdlib_getenv_r.c.o)
                0x02012b74                _findenv
 .text.strnlen  0x02012bf4       0x16 /opt/wonderful/toolchain/gcc-arm-none-eabi/lib/gcc/arm-none-eabi/13.2.0/../../../../arm-none-eabi/lib/libc.a(libc_string_strnlen.c.o)
                0x02012bf4                strnlen
 *fill*         0x02012c0a        0x2 ff
 .text.__gettzinfo
                0x02012c0c        0x8 /opt/wonderful/toolchain/gcc-arm-none-eabi/lib/gcc/arm-none-eabi/13.2.0/../../../../arm-none-eabi/lib/libc.a(libc_time_gettzinfo.c.o)
                0x02012c0c                __gettzinfo
 .text.gmtime_r
                0x02012c14      0x1ac /opt/wonderful/toolchain/gcc-arm-none-eabi/lib/gcc/arm-none-eabi/13.2.0/../../../../arm-none-eabi/lib/libc.a(libc_time_gmtime_r.c.o)
                0x02012c14                gmtime_r
 .text.__bufio_lock
                0x02012dc0        0xe /opt/wonderful/toolchain/gcc-arm-none-eabi/lib/gcc/arm-none-eabi/13.2.0/../../../../arm-none-eabi/lib/libc.a(libc_tinystdio_bufio.c.o)
 .text.__bufio_unlock
                0x02012dce        0xe /opt/wonderful/toolchain/gcc-arm-none-eabi/lib/gcc/arm-none-eabi/13.2.0/../../../../arm-none-eabi/lib/libc.a(libc_tinystdio_bufio.c.o)
 .text.__bufio_flush_locked
                0x02012ddc       0x78 /opt/wonderful/toolchain/gcc-arm-none-eabi/lib/gcc/arm-none-eabi/13.2.0/../../../../arm-none-eabi/lib/libc.a(libc_tinystdio_bufio.c.o)
 .text.__bufio_flush
                0x02012e54       0x1e /opt/wonderful/toolchain/gcc-arm-none-eabi/lib/gcc/arm-none-eabi/13.2.0/../../../../arm-none-eabi/lib/libc.a(libc_tinystdio_bufio.c.o)
                0x02012e54                __bufio_flush
 .text.__bufio_put
                0x02012e72       0x8c /opt/wonderful/toolchain/gcc-arm-none-eabi/lib/gcc/arm-none-eabi/13.2.0/../../../../arm-none-eabi/lib/libc.a(libc_tinystdio_bufio.c.o)
                0x02012e72                __bufio_put
 .text.__bufio_write
                0x02012efe       0xfa /opt/wonderful/toolchain/gcc-arm-none-eabi/lib/gcc/arm-none-eabi/13.2.0/../../../../arm-none-eabi/lib/libc.a(libc_tinystdio_bufio.c.o)
                0x02012efe                __bufio_write
 .text.__bufio_get
                0x02012ff8       0xbc /opt/wonderful/toolchain/gcc-arm-none-eabi/lib/gcc/arm-none-eabi/13.2.0/../../../../arm-none-eabi/lib/libc.a(libc_tinystdio_bufio.c.o)
                0x02012ff8                __bufio_get
 .text.__bufio_read
                0x020130b4      0x10c /opt/wonderful/toolchain/gcc-arm-none-eabi/lib/gcc/arm-none-eabi/13.2.0/../../../../arm-none-eabi/lib/libc.a(libc_tinystdio_bufio.c.o)
                0x020130b4                __bufio_read
 .text.__bufio_seek
                0x020131c0       0xa6 /opt/wonderful/toolchain/gcc-arm-none-eabi/lib/gcc/arm-none-eabi/13.2.0/../../../../arm-none-eabi/lib/libc.a(libc_tinystdio_bufio.c.o)
                0x020131c0                __bufio_seek
 .text.__bufio_setvbuf
                0x02013266       0x90 /opt/wonderful/toolchain/gcc-arm-none-eabi/lib/gcc/arm-none-eabi/13.2.0/../../../../arm-none-eabi/lib/libc.a(libc_tinystdio_bufio.c.o)
                0x02013266                __bufio_setvbuf
 .text.__bufio_close
                0x020132f6       0x48 /opt/wonderful/toolchain/gcc-arm-none-eabi/lib/gcc/arm-none-eabi/13.2.0/../../../../arm-none-eabi/lib/libc.a(libc_tinystdio_bufio.c.o)
                0x020132f6                __bufio_close
 *fill*         0x0201333e        0x2 ff
 .text.__dtox_engine
                0x02013340      0x140 /opt/wonderful/toolchain/gcc-arm-none-eabi/lib/gcc/arm-none-eabi/13.2.0/../../../../arm-none-eabi/lib/libc.a(libc_tinystdio_dtox_engine.c.o)
                0x02013340                __dtox_engine
 .text.fgetc    0x02013480       0x48 /opt/wonderful/toolchain/gcc-arm-none-eabi/lib/gcc/arm-none-eabi/13.2.0/../../../../arm-none-eabi/lib/libc.a(libc_tinystdio_fgetc.c.o)
                0x02013480                getc
                0x02013480                fgetc
 .text.__file_str_get
                0x020134c8       0x16 /opt/wonderful/toolchain/gcc-arm-none-eabi/lib/gcc/arm-none-eabi/13.2.0/../../../../arm-none-eabi/lib/libc.a(libc_tinystdio_filestrget.c.o)
                0x020134c8                __file_str_get
 .text.__file_str_put
                0x020134de       0x10 /opt/wonderful/toolchain/gcc-arm-none-eabi/lib/gcc/arm-none-eabi/13.2.0/../../../../arm-none-eabi/lib/libc.a(libc_tinystdio_filestrput.c.o)
                0x020134de                __file_str_put
 *fill*         0x020134ee        0x2 ff
 .text.fseeko   0x020134f0       0x48 /opt/wonderful/toolchain/gcc-arm-none-eabi/lib/gcc/arm-none-eabi/13.2.0/../../../../arm-none-eabi/lib/libc.a(libc_tinystdio_fseeko.c.o)
                0x020134f0                fseeko
 .text.__posix_sflags
                0x02013538       0x5c /opt/wonderful/toolchain/gcc-arm-none-eabi/lib/gcc/arm-none-eabi/13.2.0/../../../../arm-none-eabi/lib/libc.a(libc_tinystdio_sflags.c.o)
                0x02013538                __posix_sflags
 .text.ungetc   0x02013594       0x3a /opt/wonderful/toolchain/gcc-arm-none-eabi/lib/gcc/arm-none-eabi/13.2.0/../../../../arm-none-eabi/lib/libc.a(libc_tinystdio_ungetc.c.o)
                0x02013594                ungetc
 .text.__picolibc_non_atomic_compare_exchange_ungetc
                0x020135ce       0x16 /opt/wonderful/toolchain/gcc-arm-none-eabi/lib/gcc/arm-none-eabi/13.2.0/../../../../arm-none-eabi/lib/libc.a(libc_tinystdio_compare_exchange.c.o)
                0x020135ce                __picolibc_non_atomic_compare_exchange_ungetc
                0x020135ce                __atomic_compare_exchange_ungetc
 .text._exit    0x020135e4        0x8 /opt/wonderful/thirdparty/blocksds/core/libs/libnds/lib/libnds9.a(syscalls.c.o)
                0x020135e4                _exit
 .text.gettimeofday
                0x020135ec       0x1c /opt/wonderful/thirdparty/blocksds/core/libs/libnds/lib/libnds9.a(syscalls.c.o)
                0x020135ec                gettimeofday
 .text.gettimeofday.__stub
                0x02013608       0xec linker stubs
 *(EXCLUDE_FILE(*.twl*) .gnu.warning)
 *(EXCLUDE_FILE(*.twl*) .gnu.linkonce.t*)
 *(.glue_7)
 .glue_7        0x02013710        0x0 linker stubs
 *(.glue_7t)
 .glue_7t       0x02013710        0x0 linker stubs
                0x02013710                        . = ALIGN (0x4)

.vfp11_veneer   0x02013710        0x0
 .vfp11_veneer  0x02013710        0x0 linker stubs

.v4_bx          0x02013710        0x0
 .v4_bx         0x02013710        0x0 linker stubs

.iplt           0x02013710        0x0
 .iplt          0x02013710        0x0 build/source/main.cpp.o

.fini
 *(.fini)
                0x02013710                        __text_end = .

.rodata         0x02013710     0x1814
 *(EXCLUDE_FILE(*.twl*) .rodata)
 .rodata        0x02013710       0x90 /opt/wonderful/thirdparty/blocksds/external/nflib/lib/libnflib.a(nf_sprite256.c.o)
 .rodata        0x020137a0       0x14 /opt/wonderful/thirdparty/blocksds/core/libs/libnds/lib/libnds9.a(fatfs.c.o)
 .rodata        0x020137b4       0x18 /opt/wonderful/toolchain/gcc-arm-none-eabi/lib/gcc/arm-none-eabi/13.2.0/../../../../arm-none-eabi/lib/libc.a(libc_time_month_lengths.c.o)
                0x020137b4                __month_lengths
 .rodata        0x020137cc        0xb /opt/wonderful/toolchain/gcc-arm-none-eabi/lib/gcc/arm-none-eabi/13.2.0/../../../../arm-none-eabi/lib/libc.a(libc_tinystdio_vfscanf.c.o)
 *fill*         0x020137d7        0x1 ff
 .rodata        0x020137d8      0x338 /opt/wonderful/toolchain/gcc-arm-none-eabi/lib/gcc/arm-none-eabi/13.2.0/../../../../arm-none-eabi/lib/libc.a(libc_tinystdio_ryu_table.c.o)
 *all.rodata*(*)
 *(EXCLUDE_FILE(*.twl*) .roda)
 *(EXCLUDE_FILE(*.twl*) .rodata.*)
 .rodata._Z9init_textv.str1.4
                0x02013b10      0x897 build/source/main.cpp.o
                                 0x14 (size before relaxing)
 .rodata._Z23load_minigame_signaturev.str1.4
                0x020143a7       0x7a build/source/main.cpp.o
 .rodata._Z23minigame_main_signaturev.str1.4
                0x020143a7        0x3 build/source/main.cpp.o
 .rodata._Z13init_nitro_fsv.str1.4
                0x020143a7       0x54 build/source/main.cpp.o
 .rodata._Z17load_title_screenv.str1.4
                0x020143a7       0x47 build/source/main.cpp.o
 .rodata.NF_Error.str1.4
                0x020143a7      0x3d0 /opt/wonderful/thirdparty/blocksds/external/nflib/lib/libnflib.a(nf_basic.c.o)
 *fill*         0x020143a7        0x1 ff
 .rodata.NF_Error
                0x020143a8       0x50 /opt/wonderful/thirdparty/blocksds/external/nflib/lib/libnflib.a(nf_basic.c.o)
 .rodata.NF_SetRootFolder.str1.4
                0x020143f8      0x25a /opt/wonderful/thirdparty/blocksds/external/nflib/lib/libnflib.a(nf_basic.c.o)
 .rodata.NF_FileLoad.str1.4
                0x020143f8        0x3 /opt/wonderful/thirdparty/blocksds/external/nflib/lib/libnflib.a(nf_basic.c.o)
 .rodata.NF_LoadSpriteGfx.str1.4
                0x020143f8       0x1a /opt/wonderful/thirdparty/blocksds/external/nflib/lib/libnflib.a(nf_sprite256.c.o)
 .rodata.NF_LoadSpritePal.str1.4
                0x020143f8       0x1a /opt/wonderful/thirdparty/blocksds/external/nflib/lib/libnflib.a(nf_sprite256.c.o)
 .rodata.NF_VramSpriteGfx.str1.4
                0x020143f8       0x20 /opt/wonderful/thirdparty/blocksds/external/nflib/lib/libnflib.a(nf_sprite256.c.o)
 .rodata.NF_VramSpritePal.str1.4
                0x020143f8       0x14 /opt/wonderful/thirdparty/blocksds/external/nflib/lib/libnflib.a(nf_sprite256.c.o)
 .rodata.NF_CreateSprite.str1.4
                0x020143f8       0x18 /opt/wonderful/thirdparty/blocksds/external/nflib/lib/libnflib.a(nf_sprite256.c.o)
 .rodata.NF_DeleteSprite.str1.4
                0x020143f8        0x3 /opt/wonderful/thirdparty/blocksds/external/nflib/lib/libnflib.a(nf_sprite256.c.o)
 .rodata.NF_LoadTextFont.str1.4
                0x020143f8       0x2b /opt/wonderful/thirdparty/blocksds/external/nflib/lib/libnflib.a(nf_text.c.o)
 .rodata.NF_CreateTextLayer.str1.4
                0x020143f8        0x9 /opt/wonderful/thirdparty/blocksds/external/nflib/lib/libnflib.a(nf_text.c.o)
 .rodata.NF_WriteText
                0x020143f8      0x170 /opt/wonderful/thirdparty/blocksds/external/nflib/lib/libnflib.a(nf_text.c.o)
 .rodata.NF_InitTiledBgBuffers.str1.4
                0x02014568        0xd /opt/wonderful/thirdparty/blocksds/external/nflib/lib/libnflib.a(nf_tiledbg.c.o)
 .rodata.NF_LoadTiledBg.str1.4
                0x02014568       0x37 /opt/wonderful/thirdparty/blocksds/external/nflib/lib/libnflib.a(nf_tiledbg.c.o)
 .rodata.NF_DeleteTiledBg.str1.4
                0x02014568        0x3 /opt/wonderful/thirdparty/blocksds/external/nflib/lib/libnflib.a(nf_tiledbg.c.o)
 .rodata.NF_GetTileMapAddress.str1.4
                0x02014568        0xf /opt/wonderful/thirdparty/blocksds/external/nflib/lib/libnflib.a(nf_tiledbg.c.o)
 .rodata.con_write.str1.4
                0x02014568       0x30 /opt/wonderful/thirdparty/blocksds/core/libs/libnds/lib/libnds9.a(console.c.o)
 .rodata.con_write
                0x02014568       0xd4 /opt/wonderful/thirdparty/blocksds/core/libs/libnds/lib/libnds9.a(console.c.o)
 .rodata.SIN_LUT
                0x0201463c      0x102 /opt/wonderful/thirdparty/blocksds/core/libs/libnds/lib/libnds9.a(trig.c.o)
                0x0201463c                SIN_LUT
 *fill*         0x0201473e        0x2 ff
 .rodata.CSWTCH.24
                0x02014740        0xc /opt/wonderful/thirdparty/blocksds/core/libs/libnds/lib/libnds9.a(filesystem.c.o)
 .rodata.fatGetDefaultCwd.str1.4
                0x0201474c        0xd /opt/wonderful/thirdparty/blocksds/core/libs/libnds/lib/libnds9.a(fatfs.c.o)
 .rodata.get_ldnumber.str1.4
                0x0201474c        0x7 /opt/wonderful/thirdparty/blocksds/core/libs/libnds/lib/libnds9.a(ff.c.o)
 .rodata.follow_path.str1.4
                0x0201474c       0x13 /opt/wonderful/thirdparty/blocksds/core/libs/libnds/lib/libnds9.a(ff.c.o)
 .rodata.check_fs.str1.4
                0x0201474c        0x9 /opt/wonderful/thirdparty/blocksds/core/libs/libnds/lib/libnds9.a(ff.c.o)
 .rodata.ExCvt  0x0201474c       0x80 /opt/wonderful/thirdparty/blocksds/core/libs/libnds/lib/libnds9.a(ff.c.o)
 .rodata.LfnOfs
                0x020147cc        0xd /opt/wonderful/thirdparty/blocksds/core/libs/libnds/lib/libnds9.a(ff.c.o)
 *fill*         0x020147d9        0x3 ff
 .rodata.ff_wtoupper
                0x020147dc       0x24 /opt/wonderful/thirdparty/blocksds/core/libs/libnds/lib/libnds9.a(ffunicode.c.o)
 .rodata.cvt2.0
                0x02014800       0xbc /opt/wonderful/thirdparty/blocksds/core/libs/libnds/lib/libnds9.a(ffunicode.c.o)
 .rodata.cvt1.1
                0x020148bc      0x1f2 /opt/wonderful/thirdparty/blocksds/core/libs/libnds/lib/libnds9.a(ffunicode.c.o)
 *fill*         0x02014aae        0x2 ff
 .rodata.uc437  0x02014ab0      0x100 /opt/wonderful/thirdparty/blocksds/core/libs/libnds/lib/libnds9.a(ffunicode.c.o)
 .rodata.nitrofs_use_for_path.str1.4
                0x02014bb0        0xc /opt/wonderful/thirdparty/blocksds/core/libs/libnds/lib/libnds9.a(nitrofs.c.o)
 .rodata.nitroFSInit.str1.4
                0x02014bb0        0x2 /opt/wonderful/thirdparty/blocksds/core/libs/libnds/lib/libnds9.a(nitrofs.c.o)
 .rodata.chdir.str1.4
                0x02014bb0        0xb /opt/wonderful/thirdparty/blocksds/core/libs/libnds/lib/libnds9.a(chdir.c.o)
 .rodata.stderr
                0x02014bb0        0x4 /opt/wonderful/thirdparty/blocksds/core/libs/libnds/lib/libnds9.a(iob.c.o)
                0x02014bb0                stderr
 .rodata.stdout
                0x02014bb4        0x4 /opt/wonderful/thirdparty/blocksds/core/libs/libnds/lib/libnds9.a(iob.c.o)
                0x02014bb4                stdout
 .rodata.stdin  0x02014bb8        0x4 /opt/wonderful/thirdparty/blocksds/core/libs/libnds/lib/libnds9.a(iob.c.o)
                0x02014bb8                stdin
 .rodata.default_font_bin
                0x02014bbc      0x2f8 /opt/wonderful/thirdparty/blocksds/core/libs/libnds/lib/libnds9.a(default_font.bin.o)
                0x02014bbc                default_font_bin
 .rodata.str1.1
                0x02014eb4       0x70 /opt/wonderful/toolchain/gcc-arm-none-eabi/lib/gcc/arm-none-eabi/13.2.0/../../../../arm-none-eabi/lib/libc.a(libc_time_tzset.c.o)
                                 0x61 (size before relaxing)
 .rodata.str1.1
                0x02014f24        0x4 /opt/wonderful/toolchain/gcc-arm-none-eabi/lib/gcc/arm-none-eabi/13.2.0/../../../../arm-none-eabi/lib/libc.a(libc_time_tzvars.c.o)
 .rodata.str1.1
                0x02014f24        0xf /opt/wonderful/toolchain/gcc-arm-none-eabi/lib/gcc/arm-none-eabi/13.2.0/../../../../arm-none-eabi/lib/libc.a(libc_tinystdio_vfprintf.c.o)
 .rodata.str1.1
                0x02014f24       0x13 /opt/wonderful/toolchain/gcc-arm-none-eabi/lib/gcc/arm-none-eabi/13.2.0/../../../../arm-none-eabi/lib/libc.a(libc_tinystdio_vfscanf.c.o)
 *(EXCLUDE_FILE(*.twl*) .gnu.linkonce.r*)
                0x02014f38                        . = ALIGN (0x4)

.ARM.extab
 *(.ARM.extab* .gnu.linkonce.armextab.*)
                0x02014f24                        __exidx_start = .

ARM.exidx       0x02014f24        0x8
 *(.ARM.exidx* .gnu.linkonce.armexidx.*)
 .ARM.exidx     0x02014f24        0x8 /opt/wonderful/toolchain/gcc-arm-none-eabi/lib/gcc/arm-none-eabi/13.2.0/thumb/libgcc.a(_udivmoddi4.o)
                0x02014f2c                        __exidx_end = .
                0x02014f2c                        . = ALIGN (0x4)
                0x02014f2c                        PROVIDE (__preinit_array_start = .)

.preinit_array
 *(.preinit_array)
                0x02014f2c                        PROVIDE (__preinit_array_end = .)
                0x02014f2c                        PROVIDE (__init_array_start = .)

.init_array
 *(SORT_BY_NAME(.init_array.*))
 *(.init_array)
                0x02014f2c                        PROVIDE (__init_array_end = .)
                0x02014f2c                        PROVIDE (__fini_array_start = .)

.fini_array
 *(.fini_array)
 *(SORT_BY_NAME(.fini_array.*))
                0x02014f2c                        PROVIDE (__fini_array_end = .)

.ctors          0x02014f2c        0x0
 *crtbegin.o(.ctors)
 *(EXCLUDE_FILE(*crtend.o) .ctors)
 *(SORT_BY_NAME(.ctors.*))
 *(.ctors)
                0x02014f2c                        . = ALIGN (0x4)

.dtors          0x02014f2c        0x0
 *crtbegin.o(.dtors)
 *(EXCLUDE_FILE(*crtend.o) .dtors)
 *(SORT_BY_NAME(.dtors.*))
 *(.dtors)
                0x02014f2c                        . = ALIGN (0x4)

.eh_frame       0x02014f2c        0x0
 *(.eh_frame)
                0x02014f2c                        . = ALIGN (0x4)

.gcc_except_table
                0x02014f2c        0x0
 *(.gcc_except_table)
                0x02014f2c                        . = ALIGN (0x4)

.jcr
 *(.jcr)

.got            0x02014f2c       0x10
 *(.got.plt)
 .got.plt       0x02014f2c        0xc build/source/main.cpp.o
                0x02014f2c                _GLOBAL_OFFSET_TABLE_
 *(.got)
 .got           0x02014f38        0x4 build/source/main.cpp.o
 *(.rel.got)
 .rel.got       0x02014f3c        0x0 build/source/main.cpp.o

.ewram          0x02014f3c        0x0
                0x02014f3c                        __ewram_start = ABSOLUTE (.)
 *(.ewram)
 *ewram.*(.text)
                0x02014f3c                        . = ALIGN (0x4)

.data           0x02014f3c      0x598
                0x02014f3c                        __data_start = ABSOLUTE (.)
 *(EXCLUDE_FILE(*.twl*) .data)
 .data          0x02014f3c       0x28 /opt/wonderful/thirdparty/blocksds/core/libs/libnds/lib/libnds9.a(mpu_setup.s.o)
 .data          0x02014f64      0x410 /opt/wonderful/toolchain/gcc-arm-none-eabi/lib/gcc/arm-none-eabi/13.2.0/../../../../arm-none-eabi/lib/libc.a(malloc-malloc.c.o)
                0x02014f64                __malloc_sbrk_base
                0x02014f68                __malloc_trim_threshold
                0x02014f6c                __malloc_av_
 .data          0x02015374        0x8 /opt/wonderful/toolchain/gcc-arm-none-eabi/lib/gcc/arm-none-eabi/13.2.0/../../../../arm-none-eabi/lib/libc.a(libc_time_tzvars.c.o)
                0x02015374                _tzname
 .data          0x0201537c        0x4 /opt/wonderful/toolchain/gcc-arm-none-eabi/lib/gcc/arm-none-eabi/13.2.0/../../../../arm-none-eabi/lib/libc.a(libc_stdlib_environ.c.o)
                0x0201537c                environ
 *(EXCLUDE_FILE(*.twl*) .data.*)
 .data.oamSub   0x02015380       0x14 /opt/wonderful/thirdparty/blocksds/core/libs/libnds/lib/libnds9.a(sprite.c.o)
                0x02015380                oamSub
 .data.oamMain  0x02015394       0x14 /opt/wonderful/thirdparty/blocksds/core/libs/libnds/lib/libnds9.a(sprite.c.o)
                0x02015394                oamMain
 .data.count    0x020153a8        0x1 /opt/wonderful/thirdparty/blocksds/core/libs/libnds/lib/libnds9.a(keys.c.o)
 .data.repeat   0x020153a9        0x1 /opt/wonderful/thirdparty/blocksds/core/libs/libnds/lib/libnds9.a(keys.c.o)
 .data.delay    0x020153aa        0x1 /opt/wonderful/thirdparty/blocksds/core/libs/libnds/lib/libnds9.a(keys.c.o)
 .data.firstConsoleInit.0
                0x020153ab        0x1 /opt/wonderful/thirdparty/blocksds/core/libs/libnds/lib/libnds9.a(console.c.o)
 .data.currentConsole
                0x020153ac        0x4 /opt/wonderful/thirdparty/blocksds/core/libs/libnds/lib/libnds9.a(console.c.o)
                0x020153ac                currentConsole
 .data.defaultConsole
                0x020153b0       0x5c /opt/wonderful/thirdparty/blocksds/core/libs/libnds/lib/libnds9.a(console.c.o)
                0x020153b0                defaultConsole
 .data.__stderr
                0x0201540c       0x10 /opt/wonderful/thirdparty/blocksds/core/libs/libnds/lib/libnds9.a(iob.c.o)
 .data.__stdout
                0x0201541c       0x10 /opt/wonderful/thirdparty/blocksds/core/libs/libnds/lib/libnds9.a(iob.c.o)
 .data.__stdin  0x0201542c       0x10 /opt/wonderful/thirdparty/blocksds/core/libs/libnds/lib/libnds9.a(iob.c.o)
 .data.dldi_mode
                0x0201543c        0x1 /opt/wonderful/thirdparty/blocksds/core/libs/libnds/lib/libnds9.a(dldi.c.o)
 *fill*         0x0201543d        0x3 ff
 .data.__io_dldi_arm7_interface
                0x02015440       0x20 /opt/wonderful/thirdparty/blocksds/core/libs/libnds/lib/libnds9.a(dldi.c.o)
                0x02015440                __io_dldi_arm7_interface
 .data.fifo_freewords
                0x02015460        0x4 /opt/wonderful/thirdparty/blocksds/core/libs/libnds/lib/libnds9.a(fifosystem.c.o)
 .data.fifo_receive_queue
                0x02015464        0x4 /opt/wonderful/thirdparty/blocksds/core/libs/libnds/lib/libnds9.a(fifosystem.c.o)
 .data.fifo_send_queue
                0x02015468        0x4 /opt/wonderful/thirdparty/blocksds/core/libs/libnds/lib/libnds9.a(fifosystem.c.o)
 .data.fifo_buffer_free
                0x0201546c        0x4 /opt/wonderful/thirdparty/blocksds/core/libs/libnds/lib/libnds9.a(fifosystem.c.o)
 .data.bgTransform
                0x02015470       0x20 /opt/wonderful/thirdparty/blocksds/core/libs/libnds/lib/libnds9.a(background.c.o)
                0x02015470                bgTransform
 .data.bgScrollTable
                0x02015490       0x20 /opt/wonderful/thirdparty/blocksds/core/libs/libnds/lib/libnds9.a(background.c.o)
                0x02015490                bgScrollTable
 .data.bgControl
                0x020154b0       0x20 /opt/wonderful/thirdparty/blocksds/core/libs/libnds/lib/libnds9.a(background.c.o)
                0x020154b0                bgControl
 .data.lastKey  0x020154d0        0x2 /opt/wonderful/thirdparty/blocksds/core/libs/libnds/lib/libnds9.a(keyboard.c.o)
                0x020154d0                lastKey
 *(EXCLUDE_FILE(*.twl*) .gnu.linkonce.d*)
                0x020154d4                        . = ALIGN (0x4)
 *fill*         0x020154d2        0x2 ff

.igot.plt       0x020154d4        0x0
 .igot.plt      0x020154d4        0x0 build/source/main.cpp.o

.tdata          0x020154d4        0x0
                0x020154d4                        __tdata_start = ABSOLUTE (.)
 *(.tdata .tdata.* .gnu.linkonce.td.*)
                0x020154d4                        . = ALIGN (0x4)
                0x020154d4                        __tdata_end = ABSOLUTE (.)
                0x020154d4                        __data_end = .
                0x00000000                        __tdata_size = (__tdata_end - __tdata_start)

.tbss           0x020154d4       0x28
                0x020154d4                        __tbss_start = ABSOLUTE (.)
 *(.tbss .tbss.* .gnu.linkonce.tb.*)
 .tbss          0x020154d4        0x4 /opt/wonderful/toolchain/gcc-arm-none-eabi/lib/gcc/arm-none-eabi/13.2.0/../../../../arm-none-eabi/lib/libc.a(libc_errno_errno.c.o)
                0x020154d4                errno
 .tbss          0x020154d8       0x24 /opt/wonderful/toolchain/gcc-arm-none-eabi/lib/gcc/arm-none-eabi/13.2.0/../../../../arm-none-eabi/lib/libc.a(libc_time_lcltime_buf.c.o)
                0x020154d8                _localtime_buf
 *(.tcommon)
                0x020154fc                        . = ALIGN (0x4)
                0x020154fc                        __tbss_end = ABSOLUTE (.)
                0x00000028                        __tbss_size = (__tbss_end - __tbss_start)
                0x020154d4                        __bss_vma = .

.dtcm           0x02ff0000        0x0 load address 0x020154d4
                0x020154d4                        __dtcm_lma = LOADADDR (.dtcm)
                0x02ff0000                        __dtcm_start = ABSOLUTE (.)
 *(.dtcm)
 *(.dtcm.*)
                0x02ff0000                        . = ALIGN (0x4)
                0x02ff0000                        __dtcm_end = ABSOLUTE (.)

.itcm           0x01000100      0x2f8 load address 0x020154d4
                0x020154d4                        __itcm_lma = LOADADDR (.itcm)
                0x01000100                        __itcm_start = ABSOLUTE (.)
 *(.itcm)
 .itcm          0x01000100       0x8c /opt/wonderful/thirdparty/blocksds/core/libs/libnds/lib/libnds9.a(cache.c.o)
                0x01000100                CP15_CleanAndFlushDCacheRange
                0x01000134                CP15_FlushDCacheRange
                0x01000160                CP15_FlushICacheRange
 .itcm          0x0100018c      0x100 /opt/wonderful/thirdparty/blocksds/core/libs/libnds/lib/libnds9.a(interrupts.c.o)
                0x0100018c                irqTable
 .itcm          0x0100028c       0x3c /opt/wonderful/thirdparty/blocksds/core/libs/libnds/lib/libnds9.a(threads.c.o)
                0x0100028c                cothread_scheduler_refresh_irq_flags
 *(.itcm.*)
 .itcm.setCpuClock
                0x010002c8       0x50 /opt/wonderful/thirdparty/blocksds/core/libs/libnds/lib/libnds9.a(cpu_clock.s.o)
                0x010002c8                setCpuClock
 .itcm.IntrMain
                0x01000318       0xe0 /opt/wonderful/thirdparty/blocksds/core/libs/libnds/lib/libnds9.a(interruptDispatcher.s.o)
                0x01000318                IntrMain
 *.itcm*(.text .stub .text.*)
                0x010003f8                        . = ALIGN (0x4)
                0x010003f8                        __itcm_end = ABSOLUTE (.)

.vectors        0x01000000        0x0 load address 0x020157cc
                0x020157cc                        __vectors_lma = LOADADDR (.vectors)
                0x01000000                        __vectors_start = ABSOLUTE (.)
 *(.vectors .vectors.*)
                0x01000000                        . = ALIGN (0x4)
                0x01000000                        __vectors_end = ABSOLUTE (.)

.sbss           0x02ff0000        0x4
                0x02ff0000                        __sbss_start = ABSOLUTE (.)
                0x02ff0000                        __sbss_start__ = ABSOLUTE (.)
 *(.sbss)
 .sbss          0x02ff0000        0x4 /opt/wonderful/thirdparty/blocksds/core/libs/libnds/lib/libnds9.a(threads.c.o)
                0x02ff0000                cothread_irq_flags
                0x02ff0004                        . = ALIGN (0x4)
                0x02ff0004                        __sbss_end = ABSOLUTE (.)

.bss            0x020154d4     0x8590
                0x020154d4                        __bss_start = ABSOLUTE (.)
                0x020154d4                        __bss_start__ = ABSOLUTE (.)
 *(EXCLUDE_FILE(*.twl*) .dynbss)
 *(EXCLUDE_FILE(*.twl*) .gnu.linkonce.b*)
 *(EXCLUDE_FILE(*.twl*) .bss*)
 .bss.NF_ROOTFOLDER
                0x020154d4       0x40 /opt/wonderful/thirdparty/blocksds/external/nflib/lib/libnflib.a(nf_basic.c.o)
                0x020154d4                NF_ROOTFOLDER
 .bss.NF_SPRVRAM
                0x02015514      0x838 /opt/wonderful/thirdparty/blocksds/external/nflib/lib/libnflib.a(nf_sprite256.c.o)
                0x02015514                NF_SPRVRAM
 .bss.NF_SPRITEOAM
                0x02015d4c     0x2400 /opt/wonderful/thirdparty/blocksds/external/nflib/lib/libnflib.a(nf_sprite256.c.o)
                0x02015d4c                NF_SPRITEOAM
 .bss.NF_SPRPALSLOT
                0x0201814c       0x40 /opt/wonderful/thirdparty/blocksds/external/nflib/lib/libnflib.a(nf_sprite256.c.o)
                0x0201814c                NF_SPRPALSLOT
 .bss.NF_SPR256VRAM
                0x0201818c     0x1400 /opt/wonderful/thirdparty/blocksds/external/nflib/lib/libnflib.a(nf_sprite256.c.o)
                0x0201818c                NF_SPR256VRAM
 .bss.NF_SPR256PAL
                0x0201958c      0x200 /opt/wonderful/thirdparty/blocksds/external/nflib/lib/libnflib.a(nf_sprite256.c.o)
                0x0201958c                NF_SPR256PAL
 .bss.NF_SPR256GFX
                0x0201978c      0xc00 /opt/wonderful/thirdparty/blocksds/external/nflib/lib/libnflib.a(nf_sprite256.c.o)
                0x0201978c                NF_SPR256GFX
 .bss.NF_BUFFER_SPR256PAL
                0x0201a38c      0x100 /opt/wonderful/thirdparty/blocksds/external/nflib/lib/libnflib.a(nf_sprite256.c.o)
                0x0201a38c                NF_BUFFER_SPR256PAL
 .bss.NF_BUFFER_SPR256GFX
                0x0201a48c      0x400 /opt/wonderful/thirdparty/blocksds/external/nflib/lib/libnflib.a(nf_sprite256.c.o)
                0x0201a48c                NF_BUFFER_SPR256GFX
 .bss.NF_TEXT   0x0201a88c       0x50 /opt/wonderful/thirdparty/blocksds/external/nflib/lib/libnflib.a(nf_text.c.o)
                0x0201a88c                NF_TEXT
 .bss.NF_MAPBLOCKS
                0x0201a8dc       0x20 /opt/wonderful/thirdparty/blocksds/external/nflib/lib/libnflib.a(nf_tiledbg.c.o)
                0x0201a8dc                NF_MAPBLOCKS
 .bss.NF_TILEBLOCKS
                0x0201a8fc       0x10 /opt/wonderful/thirdparty/blocksds/external/nflib/lib/libnflib.a(nf_tiledbg.c.o)
                0x0201a8fc                NF_TILEBLOCKS
 .bss.NF_EXBGPAL
                0x0201a90c      0x600 /opt/wonderful/thirdparty/blocksds/external/nflib/lib/libnflib.a(nf_tiledbg.c.o)
                0x0201a90c                NF_EXBGPAL
 .bss.NF_TILEDBG_LAYERS
                0x0201af0c       0x90 /opt/wonderful/thirdparty/blocksds/external/nflib/lib/libnflib.a(nf_tiledbg.c.o)
                0x0201af0c                NF_TILEDBG_LAYERS
 .bss.NF_TILEDBG
                0x0201af9c      0xd00 /opt/wonderful/thirdparty/blocksds/external/nflib/lib/libnflib.a(nf_tiledbg.c.o)
                0x0201af9c                NF_TILEDBG
 .bss.NF_BUFFER_BGPAL
                0x0201bc9c      0x100 /opt/wonderful/thirdparty/blocksds/external/nflib/lib/libnflib.a(nf_tiledbg.c.o)
                0x0201bc9c                NF_BUFFER_BGPAL
 .bss.NF_BUFFER_BGMAP
                0x0201bd9c      0x100 /opt/wonderful/thirdparty/blocksds/external/nflib/lib/libnflib.a(nf_tiledbg.c.o)
                0x0201bd9c                NF_BUFFER_BGMAP
 .bss.NF_BUFFER_BGTILES
                0x0201be9c      0x100 /opt/wonderful/thirdparty/blocksds/external/nflib/lib/libnflib.a(nf_tiledbg.c.o)
                0x0201be9c                NF_BUFFER_BGTILES
 .bss.NF_BANKS_MAPS
                0x0201bf9c        0x2 /opt/wonderful/thirdparty/blocksds/external/nflib/lib/libnflib.a(nf_tiledbg.c.o)
                0x0201bf9c                NF_BANKS_MAPS
 *fill*         0x0201bf9e        0x2 
 .bss.NF_BANKS_TILES
                0x0201bfa0        0x2 /opt/wonderful/thirdparty/blocksds/external/nflib/lib/libnflib.a(nf_tiledbg.c.o)
                0x0201bfa0                NF_BANKS_TILES
 *fill*         0x0201bfa2        0x2 
 .bss.OamMemory
                0x0201bfa4      0x400 /opt/wonderful/thirdparty/blocksds/core/libs/libnds/lib/libnds9.a(sprite.c.o)
                0x0201bfa4                OamMemory
 .bss.OamMemorySub
                0x0201c3a4      0x400 /opt/wonderful/thirdparty/blocksds/core/libs/libnds/lib/libnds9.a(sprite.c.o)
                0x0201c3a4                OamMemorySub
 .bss.keysrepeat
                0x0201c7a4        0x2 /opt/wonderful/thirdparty/blocksds/core/libs/libnds/lib/libnds9.a(keys.c.o)
 .bss.keysold   0x0201c7a6        0x2 /opt/wonderful/thirdparty/blocksds/core/libs/libnds/lib/libnds9.a(keys.c.o)
 .bss.keys      0x0201c7a8        0x2 /opt/wonderful/thirdparty/blocksds/core/libs/libnds/lib/libnds9.a(keys.c.o)
 *fill*         0x0201c7aa        0x2 
 .bss.punixTime
                0x0201c7ac        0x4 /opt/wonderful/thirdparty/blocksds/core/libs/libnds/lib/libnds9.a(initSystem.c.o)
                0x0201c7ac                punixTime
 .bss.__dsimode
                0x0201c7b0        0x1 /opt/wonderful/thirdparty/blocksds/core/libs/libnds/lib/libnds9.a(initSystem.c.o)
                0x0201c7b0                __dsimode
 *fill*         0x0201c7b1        0x3 
 .bss.libnds_stderr_write
                0x0201c7b4        0x4 /opt/wonderful/thirdparty/blocksds/core/libs/libnds/lib/libnds9.a(console.c.o)
                0x0201c7b4                libnds_stderr_write
 .bss.libnds_stdout_write
                0x0201c7b8        0x4 /opt/wonderful/thirdparty/blocksds/core/libs/libnds/lib/libnds9.a(console.c.o)
                0x0201c7b8                libnds_stdout_write
 .bss.currentCopy
                0x0201c7bc       0x5c /opt/wonderful/thirdparty/blocksds/core/libs/libnds/lib/libnds9.a(console.c.o)
                0x0201c7bc                currentCopy
 .bss.current_drive_is_nitrofs
                0x0201c818        0x1 /opt/wonderful/thirdparty/blocksds/core/libs/libnds/lib/libnds9.a(filesystem.c.o)
                0x0201c818                current_drive_is_nitrofs
 .bss.has_been_called.0
                0x0201c819        0x1 /opt/wonderful/thirdparty/blocksds/core/libs/libnds/lib/libnds9.a(fatfs.c.o)
 .bss.fat_initialized
                0x0201c81a        0x1 /opt/wonderful/thirdparty/blocksds/core/libs/libnds/lib/libnds9.a(fatfs.c.o)
 *fill*         0x0201c81b        0x1 
 .bss.fs_info   0x0201c81c      0x478 /opt/wonderful/thirdparty/blocksds/core/libs/libnds/lib/libnds9.a(fatfs.c.o)
 .bss.CurrVol   0x0201cc94        0x1 /opt/wonderful/thirdparty/blocksds/core/libs/libnds/lib/libnds9.a(ff.c.o)
 *fill*         0x0201cc95        0x1 
 .bss.Fsid      0x0201cc96        0x2 /opt/wonderful/thirdparty/blocksds/core/libs/libnds/lib/libnds9.a(ff.c.o)
 .bss.FatFs     0x0201cc98        0x8 /opt/wonderful/thirdparty/blocksds/core/libs/libnds/lib/libnds9.a(ff.c.o)
 .bss.Mutex     0x0201cca0        0xc /opt/wonderful/thirdparty/blocksds/core/libs/libnds/lib/libnds9.a(ffsystem.c.o)
 .bss.fs_io     0x0201ccac        0x8 /opt/wonderful/thirdparty/blocksds/core/libs/libnds/lib/libnds9.a(diskio.c.o)
 .bss.fs_initialized
                0x0201ccb4        0x2 /opt/wonderful/thirdparty/blocksds/core/libs/libnds/lib/libnds9.a(diskio.c.o)
 *fill*         0x0201ccb6        0x2 
 .bss.selected_entry.0
                0x0201ccb8        0x4 /opt/wonderful/thirdparty/blocksds/core/libs/libnds/lib/libnds9.a(cache.c.o)
 .bss.dldi_stub_space_sectors
                0x0201ccbc        0x4 /opt/wonderful/thirdparty/blocksds/core/libs/libnds/lib/libnds9.a(cache.c.o)
 .bss.cache_num_sectors
                0x0201ccc0        0x4 /opt/wonderful/thirdparty/blocksds/core/libs/libnds/lib/libnds9.a(cache.c.o)
 .bss.cache_mem
                0x0201ccc4        0x4 /opt/wonderful/thirdparty/blocksds/core/libs/libnds/lib/libnds9.a(cache.c.o)
 .bss.cache_entries
                0x0201ccc8        0x4 /opt/wonderful/thirdparty/blocksds/core/libs/libnds/lib/libnds9.a(cache.c.o)
 .bss.nitrofs_local
                0x0201cccc       0x10 /opt/wonderful/thirdparty/blocksds/core/libs/libnds/lib/libnds9.a(nitrofs.c.o)
 .bss.nitrofs_initialized
                0x0201ccdc        0x1 /opt/wonderful/thirdparty/blocksds/core/libs/libnds/lib/libnds9.a(nitrofs.c.o)
 *fill*         0x0201ccdd        0x3 
 .bss.shown.0   0x0201cce0        0x4 /opt/wonderful/thirdparty/blocksds/core/libs/libnds/lib/libnds9.a(iob.c.o)
 .bss.stderr_buf_len
                0x0201cce4        0x2 /opt/wonderful/thirdparty/blocksds/core/libs/libnds/lib/libnds9.a(iob.c.o)
 .bss.stdout_buf_len
                0x0201cce6        0x2 /opt/wonderful/thirdparty/blocksds/core/libs/libnds/lib/libnds9.a(iob.c.o)
 .bss.stderr_buf
                0x0201cce8       0x11 /opt/wonderful/thirdparty/blocksds/core/libs/libnds/lib/libnds9.a(iob.c.o)
 *fill*         0x0201ccf9        0x3 
 .bss.stdout_buf
                0x0201ccfc       0x11 /opt/wonderful/thirdparty/blocksds/core/libs/libnds/lib/libnds9.a(iob.c.o)
 .bss.stdin_buf_empty
                0x0201cd0d        0x1 /opt/wonderful/thirdparty/blocksds/core/libs/libnds/lib/libnds9.a(iob.c.o)
                0x0201cd0d                stdin_buf_empty
 .bss.stdin_buf_right
                0x0201cd0e        0x2 /opt/wonderful/thirdparty/blocksds/core/libs/libnds/lib/libnds9.a(iob.c.o)
 .bss.stdin_buf_left
                0x0201cd10        0x2 /opt/wonderful/thirdparty/blocksds/core/libs/libnds/lib/libnds9.a(iob.c.o)
 *fill*         0x0201cd12        0x2 
 .bss.stdin_buf
                0x0201cd14       0x80 /opt/wonderful/thirdparty/blocksds/core/libs/libnds/lib/libnds9.a(iob.c.o)
 .bss.fifo_mutex
                0x0201cd94       0x40 /opt/wonderful/thirdparty/blocksds/core/libs/libnds/lib/libnds9.a(fifosystem.c.o)
 .bss.processing
                0x0201cdd4        0x4 /opt/wonderful/thirdparty/blocksds/core/libs/libnds/lib/libnds9.a(fifosystem.c.o)
 .bss.fifo_datamsg_data
                0x0201cdd8       0x40 /opt/wonderful/thirdparty/blocksds/core/libs/libnds/lib/libnds9.a(fifosystem.c.o)
 .bss.fifo_value32_data
                0x0201ce18       0x40 /opt/wonderful/thirdparty/blocksds/core/libs/libnds/lib/libnds9.a(fifosystem.c.o)
 .bss.fifo_address_data
                0x0201ce58       0x40 /opt/wonderful/thirdparty/blocksds/core/libs/libnds/lib/libnds9.a(fifosystem.c.o)
 .bss.fifo_datamsg_func
                0x0201ce98       0x40 /opt/wonderful/thirdparty/blocksds/core/libs/libnds/lib/libnds9.a(fifosystem.c.o)
 .bss.fifo_value32_func
                0x0201ced8       0x40 /opt/wonderful/thirdparty/blocksds/core/libs/libnds/lib/libnds9.a(fifosystem.c.o)
 .bss.fifo_address_func
                0x0201cf18       0x40 /opt/wonderful/thirdparty/blocksds/core/libs/libnds/lib/libnds9.a(fifosystem.c.o)
 .bss.fifo_value32_queue
                0x0201cf58       0x40 /opt/wonderful/thirdparty/blocksds/core/libs/libnds/lib/libnds9.a(fifosystem.c.o)
 .bss.fifo_data_queue
                0x0201cf98       0x40 /opt/wonderful/thirdparty/blocksds/core/libs/libnds/lib/libnds9.a(fifosystem.c.o)
 .bss.fifo_address_queue
                0x0201cfd8       0x40 /opt/wonderful/thirdparty/blocksds/core/libs/libnds/lib/libnds9.a(fifosystem.c.o)
 .bss.fifo_buffer
                0x0201d018      0x800 /opt/wonderful/thirdparty/blocksds/core/libs/libnds/lib/libnds9.a(fifosystem.c.o)
 .bss.heap_start.0
                0x0201d818        0x4 /opt/wonderful/thirdparty/blocksds/core/libs/libnds/lib/libnds9.a(sbrk.c.o)
 .bss.fake_heap_start
                0x0201d81c        0x4 /opt/wonderful/thirdparty/blocksds/core/libs/libnds/lib/libnds9.a(sbrk.c.o)
                0x0201d81c                fake_heap_start
 .bss.fake_heap_end
                0x0201d820        0x4 /opt/wonderful/thirdparty/blocksds/core/libs/libnds/lib/libnds9.a(sbrk.c.o)
                0x0201d820                fake_heap_end
 .bss.main_args
                0x0201d824        0x8 /opt/wonderful/thirdparty/blocksds/core/libs/libnds/lib/libnds9.a(threads.c.o)
 .bss.__tls     0x0201d82c        0x4 /opt/wonderful/thirdparty/blocksds/core/libs/libnds/lib/libnds9.a(threads.c.o)
                0x0201d82c                __tls
 .bss.cothread_list
                0x0201d830       0x1c /opt/wonderful/thirdparty/blocksds/core/libs/libnds/lib/libnds9.a(threads.c.o)
 .bss.cothread_active_thread
                0x0201d84c        0x4 /opt/wonderful/thirdparty/blocksds/core/libs/libnds/lib/libnds9.a(threads.c.o)
 .bss.free_fn   0x0201d850        0x4 /opt/wonderful/thirdparty/blocksds/core/libs/libnds/lib/libnds9.a(threads.c.o)
 .bss.bgIsTextLut
                0x0201d854        0x8 /opt/wonderful/thirdparty/blocksds/core/libs/libnds/lib/libnds9.a(background.c.o)
                0x0201d854                bgIsTextLut
 .bss.bgState   0x0201d85c      0x140 /opt/wonderful/thirdparty/blocksds/core/libs/libnds/lib/libnds9.a(background.c.o)
                0x0201d85c                bgState
 .bss.SDcallback
                0x0201d99c        0x4 /opt/wonderful/thirdparty/blocksds/core/libs/libnds/lib/libnds9.a(system.c.o)
 .bss.pressed.0
                0x0201d9a0        0x4 /opt/wonderful/thirdparty/blocksds/core/libs/libnds/lib/libnds9.a(keyboard.c.o)
 .bss.oldKeys.1
                0x0201d9a4        0x4 /opt/wonderful/thirdparty/blocksds/core/libs/libnds/lib/libnds9.a(keyboard.c.o)
 .bss.curKeyboard
                0x0201d9a8        0x4 /opt/wonderful/thirdparty/blocksds/core/libs/libnds/lib/libnds9.a(keyboard.c.o)
                0x0201d9a8                curKeyboard
 .bss           0x0201d9ac       0x34 /opt/wonderful/toolchain/gcc-arm-none-eabi/lib/gcc/arm-none-eabi/13.2.0/../../../../arm-none-eabi/lib/libc.a(malloc-malloc.c.o)
                0x0201d9ac                __malloc_top_pad
                0x0201d9b0                __malloc_current_mallinfo
                0x0201d9d8                __malloc_max_sbrked_mem
                0x0201d9dc                __malloc_max_total_mem
 .bss           0x0201d9e0        0x1 /opt/wonderful/toolchain/gcc-arm-none-eabi/lib/gcc/arm-none-eabi/13.2.0/../../../../arm-none-eabi/lib/libc.a(libc_misc_lock.c.o)
                0x0201d9e0                __lock___libc_recursive_mutex
 .bss           0x0201d9e1       0x18 /opt/wonderful/toolchain/gcc-arm-none-eabi/lib/gcc/arm-none-eabi/13.2.0/../../../../arm-none-eabi/lib/libc.a(libc_time_tzset.c.o)
 *fill*         0x0201d9f9        0x3 
 .bss           0x0201d9fc        0x8 /opt/wonderful/toolchain/gcc-arm-none-eabi/lib/gcc/arm-none-eabi/13.2.0/../../../../arm-none-eabi/lib/libc.a(libc_time_tzvars.c.o)
                0x0201d9fc                _timezone
                0x0201da00                _daylight
 *fill*         0x0201da04        0x4 
 .bss           0x0201da08       0x58 /opt/wonderful/toolchain/gcc-arm-none-eabi/lib/gcc/arm-none-eabi/13.2.0/../../../../arm-none-eabi/lib/libc.a(libc_time_gettzinfo.c.o)
 .bss           0x0201da60        0x4 /opt/wonderful/toolchain/gcc-arm-none-eabi/lib/gcc/arm-none-eabi/13.2.0/../../../../arm-none-eabi/lib/libc.a(libc_stdlib_environ.c.o)
 *(EXCLUDE_FILE(*.twl*) COMMON)
                0x0201da64                        . = ALIGN (0x4)
                0x0201da64                        __bss_end__ = ABSOLUTE (.)

.tls            0x0201da64       0x28
                0x0201da64                        __tls_start = ABSOLUTE (.)
                0x0201da8c                        . = ((. + __tdata_size) + __tbss_size)
 *fill*         0x0201da64       0x28 
                0x0201da8c                        __tls_end = ABSOLUTE (.)
                0x0201da8c                        __end__ = ABSOLUTE (.)
                0x00000028                        __tls_size = (__tls_end - __tls_start)

.twl            0x0201da8c      0x22c load address 0x02400000
                0x02400000                        __arm9i_lma__ = LOADADDR (.twl)
                0x0201da8c                        __arm9i_start__ = ABSOLUTE (.)
 *(.twl)
 *.twl*(.text .stub .text.* .gnu.linkonce.t.*)
 .text.sdmmc_ClearStatus
                0x0201da8c        0x4 /opt/wonderful/thirdparty/blocksds/core/libs/libnds/lib/libnds9.a(sdmmc.twl.c.o)
                0x0201da8c                sdmmc_ClearStatus
 .text.sdmmc_Shutdown
                0x0201da90        0x4 /opt/wonderful/thirdparty/blocksds/core/libs/libnds/lib/libnds9.a(sdmmc.twl.c.o)
                0x0201da90                sdmmc_Shutdown
 .text.sdmmc_fifo_sectors
                0x0201da94       0x98 /opt/wonderful/thirdparty/blocksds/core/libs/libnds/lib/libnds9.a(sdmmc.twl.c.o)
 .text.sdmmc_ReadSectors
                0x0201db2c       0x20 /opt/wonderful/thirdparty/blocksds/core/libs/libnds/lib/libnds9.a(sdmmc.twl.c.o)
                0x0201db2c                sdmmc_ReadSectors
 .text.sdmmc_WriteSectors
                0x0201db4c       0x20 /opt/wonderful/thirdparty/blocksds/core/libs/libnds/lib/libnds9.a(sdmmc.twl.c.o)
                0x0201db4c                sdmmc_WriteSectors
 .text.sdmmc_IsInserted
                0x0201db6c       0x3c /opt/wonderful/thirdparty/blocksds/core/libs/libnds/lib/libnds9.a(sdmmc.twl.c.o)
                0x0201db6c                sdmmc_IsInserted
 .text.sdmmc_Startup
                0x0201dba8       0x70 /opt/wonderful/thirdparty/blocksds/core/libs/libnds/lib/libnds9.a(sdmmc.twl.c.o)
                0x0201dba8                sdmmc_Startup
 .text.sdmmc_GetDiskStatus
                0x0201dc18       0x38 /opt/wonderful/thirdparty/blocksds/core/libs/libnds/lib/libnds9.a(sdmmc.twl.c.o)
                0x0201dc18                sdmmc_GetDiskStatus
 .text.get_io_dsisd
                0x0201dc50       0x24 /opt/wonderful/thirdparty/blocksds/core/libs/libnds/lib/libnds9.a(sdmmc.twl.c.o)
                0x0201dc50                get_io_dsisd
 *fill*         0x0201dc74        0x4 
 .text.get_io_dsisd.__stub
                0x0201dc78       0x18 linker stubs
 *.twl*(.rodata)
 *.twl*(.roda)
 *.twl*(.rodata.*)
 .rodata.__io_dsisd
                0x0201dc98       0x20 /opt/wonderful/thirdparty/blocksds/core/libs/libnds/lib/libnds9.a(sdmmc.twl.c.o)
                0x0201dc98                __io_dsisd
 *.twl*(.data)
 *.twl*(.data.*)
 *.twl*(.gnu.linkonce.d*)
                0x0201dcb8                        __arm9i_end__ = ABSOLUTE (.)

.rel.dyn        0x0201dcb8        0x0 load address 0x0240022c
 .rel.iplt      0x0201dcb8        0x0 build/source/main.cpp.o

.twl_bss        0x0201dcb8        0x0
                0x0201dcb8                        __twl_bss_start__ = ABSOLUTE (.)
 *(.twl_bss)
 *.twl*(.dynbss)
 *.twl*(.gnu.linkonce.b*)
 *.twl*(.bss*)
 *.twl*(COMMON)
                0x0201dcb8                        . = ALIGN (0x4)
                0x0201dcb8                        __twl_bss_end__ = ABSOLUTE (.)
                0x0201dcb8                        __twl_end__ = ABSOLUTE (.)

.stab
 *(.stab)

.stabstr
 *(.stabstr)

.stab.excl
 *(.stab.excl)

.stab.exclstr
 *(.stab.exclstr)

.stab.index
 *(.stab.index)

.stab.indexstr
 *(.stab.indexstr)

.comment        0x00000000       0x22
 *(.comment)
 .comment       0x00000000       0x22 build/source/main.cpp.o
                                 0x23 (size before relaxing)
 .comment       0x00000022       0x23 /opt/wonderful/thirdparty/blocksds/external/nflib/lib/libnflib.a(nf_2d.c.o)
 .comment       0x00000022       0x23 /opt/wonderful/thirdparty/blocksds/external/nflib/lib/libnflib.a(nf_basic.c.o)
 .comment       0x00000022       0x23 /opt/wonderful/thirdparty/blocksds/external/nflib/lib/libnflib.a(nf_sprite256.c.o)
 .comment       0x00000022       0x23 /opt/wonderful/thirdparty/blocksds/external/nflib/lib/libnflib.a(nf_text.c.o)
 .comment       0x00000022       0x23 /opt/wonderful/thirdparty/blocksds/external/nflib/lib/libnflib.a(nf_tiledbg.c.o)
 .comment       0x00000022       0x23 /opt/wonderful/thirdparty/blocksds/core/libs/libnds/lib/libnds9.a(touch.c.o)
 .comment       0x00000022       0x23 /opt/wonderful/thirdparty/blocksds/core/libs/libnds/lib/libnds9.a(sprite.c.o)
 .comment       0x00000022       0x23 /opt/wonderful/thirdparty/blocksds/core/libs/libnds/lib/libnds9.a(sprite_alloc.c.o)
 .comment       0x00000022       0x23 /opt/wonderful/thirdparty/blocksds/core/libs/libnds/lib/libnds9.a(video.c.o)
 .comment       0x00000022       0x23 /opt/wonderful/thirdparty/blocksds/core/libs/libnds/lib/libnds9.a(securearea.c.o)
 .comment       0x00000022       0x23 /opt/wonderful/thirdparty/blocksds/core/libs/libnds/lib/libnds9.a(keys.c.o)
 .comment       0x00000022       0x23 /opt/wonderful/thirdparty/blocksds/core/libs/libnds/lib/libnds9.a(initSystem.c.o)
 .comment       0x00000022       0x23 /opt/wonderful/thirdparty/blocksds/core/libs/libnds/lib/libnds9.a(cache.c.o)
 .comment       0x00000022       0x23 /opt/wonderful/thirdparty/blocksds/core/libs/libnds/lib/libnds9.a(console.c.o)
 .comment       0x00000022       0x23 /opt/wonderful/thirdparty/blocksds/core/libs/libnds/lib/libnds9.a(trig.c.o)
 .comment       0x00000022       0x23 /opt/wonderful/thirdparty/blocksds/core/libs/libnds/lib/libnds9.a(filesystem.c.o)
 .comment       0x00000022       0x23 /opt/wonderful/thirdparty/blocksds/core/libs/libnds/lib/libnds9.a(fatfs.c.o)
 .comment       0x00000022       0x23 /opt/wonderful/thirdparty/blocksds/core/libs/libnds/lib/libnds9.a(ff.c.o)
 .comment       0x00000022       0x23 /opt/wonderful/thirdparty/blocksds/core/libs/libnds/lib/libnds9.a(ffunicode.c.o)
 .comment       0x00000022       0x23 /opt/wonderful/thirdparty/blocksds/core/libs/libnds/lib/libnds9.a(ffsystem.c.o)
 .comment       0x00000022       0x23 /opt/wonderful/thirdparty/blocksds/core/libs/libnds/lib/libnds9.a(diskio.c.o)
 .comment       0x00000022       0x23 /opt/wonderful/thirdparty/blocksds/core/libs/libnds/lib/libnds9.a(cache.c.o)
 .comment       0x00000022       0x23 /opt/wonderful/thirdparty/blocksds/core/libs/libnds/lib/libnds9.a(nitrofs.c.o)
 .comment       0x00000022       0x23 /opt/wonderful/thirdparty/blocksds/core/libs/libnds/lib/libnds9.a(crt0_argv.c.o)
 .comment       0x00000022       0x23 /opt/wonderful/thirdparty/blocksds/core/libs/libnds/lib/libnds9.a(chdir.c.o)
 .comment       0x00000022       0x23 /opt/wonderful/thirdparty/blocksds/core/libs/libnds/lib/libnds9.a(iob.c.o)
 .comment       0x00000022       0x23 /opt/wonderful/thirdparty/blocksds/core/libs/libnds/lib/libnds9.a(dldi.c.o)
 .comment       0x00000022       0x23 /opt/wonderful/thirdparty/blocksds/core/libs/libnds/lib/libnds9.a(sdmmc.twl.c.o)
 .comment       0x00000022       0x23 /opt/wonderful/thirdparty/blocksds/core/libs/libnds/lib/libnds9.a(fifosystem.c.o)
 .comment       0x00000022       0x23 /opt/wonderful/thirdparty/blocksds/core/libs/libnds/lib/libnds9.a(interrupts.c.o)
 .comment       0x00000022       0x23 /opt/wonderful/thirdparty/blocksds/core/libs/libnds/lib/libnds9.a(libnds_exit.c.o)
 .comment       0x00000022       0x23 /opt/wonderful/thirdparty/blocksds/core/libs/libnds/lib/libnds9.a(card.c.o)
 .comment       0x00000022       0x23 /opt/wonderful/thirdparty/blocksds/core/libs/libnds/lib/libnds9.a(sbrk.c.o)
 .comment       0x00000022       0x23 /opt/wonderful/thirdparty/blocksds/core/libs/libnds/lib/libnds9.a(threads.c.o)
 .comment       0x00000022       0x23 /opt/wonderful/thirdparty/blocksds/core/libs/libnds/lib/libnds9.a(default_font.bin.o)
 .comment       0x00000022       0x23 /opt/wonderful/thirdparty/blocksds/core/libs/libnds/lib/libnds9.a(background.c.o)
 .comment       0x00000022       0x23 /opt/wonderful/thirdparty/blocksds/core/libs/libnds/lib/libnds9.a(system.c.o)
 .comment       0x00000022       0x23 /opt/wonderful/thirdparty/blocksds/core/libs/libnds/lib/libnds9.a(keyboard.c.o)
 .comment       0x00000022       0x23 /opt/wonderful/thirdparty/blocksds/core/libs/libnds/lib/libnds9.a(coroutine.c.o)
 .comment       0x00000022       0x23 /opt/wonderful/toolchain/gcc-arm-none-eabi/lib/gcc/arm-none-eabi/13.2.0/../../../../arm-none-eabi/lib/libc.a(malloc-calloc.c.o)
 .comment       0x00000022       0x23 /opt/wonderful/toolchain/gcc-arm-none-eabi/lib/gcc/arm-none-eabi/13.2.0/../../../../arm-none-eabi/lib/libc.a(malloc-free.c.o)
 .comment       0x00000022       0x23 /opt/wonderful/toolchain/gcc-arm-none-eabi/lib/gcc/arm-none-eabi/13.2.0/../../../../arm-none-eabi/lib/libc.a(malloc-malloc.c.o)
 .comment       0x00000022       0x23 /opt/wonderful/toolchain/gcc-arm-none-eabi/lib/gcc/arm-none-eabi/13.2.0/../../../../arm-none-eabi/lib/libc.a(malloc-realloc.c.o)
 .comment       0x00000022       0x23 /opt/wonderful/toolchain/gcc-arm-none-eabi/lib/gcc/arm-none-eabi/13.2.0/../../../../arm-none-eabi/lib/libc.a(libc_errno_errno.c.o)
 .comment       0x00000022       0x23 /opt/wonderful/toolchain/gcc-arm-none-eabi/lib/gcc/arm-none-eabi/13.2.0/../../../../arm-none-eabi/lib/libc.a(libc_misc_init.c.o)
 .comment       0x00000022       0x23 /opt/wonderful/toolchain/gcc-arm-none-eabi/lib/gcc/arm-none-eabi/13.2.0/../../../../arm-none-eabi/lib/libc.a(libc_misc_lock.c.o)
 .comment       0x00000022       0x23 /opt/wonderful/toolchain/gcc-arm-none-eabi/lib/gcc/arm-none-eabi/13.2.0/../../../../arm-none-eabi/lib/libc.a(libc_stdlib_pico-exit.c.o)
 .comment       0x00000022       0x23 /opt/wonderful/toolchain/gcc-arm-none-eabi/lib/gcc/arm-none-eabi/13.2.0/../../../../arm-none-eabi/lib/libc.a(libc_string_memcmp.c.o)
 .comment       0x00000022       0x23 /opt/wonderful/toolchain/gcc-arm-none-eabi/lib/gcc/arm-none-eabi/13.2.0/../../../../arm-none-eabi/lib/libc.a(libc_string_strchr.c.o)
 .comment       0x00000022       0x23 /opt/wonderful/toolchain/gcc-arm-none-eabi/lib/gcc/arm-none-eabi/13.2.0/../../../../arm-none-eabi/lib/libc.a(libc_string_strdup.c.o)
 .comment       0x00000022       0x23 /opt/wonderful/toolchain/gcc-arm-none-eabi/lib/gcc/arm-none-eabi/13.2.0/../../../../arm-none-eabi/lib/libc.a(libc_string_strncmp.c.o)
 .comment       0x00000022       0x23 /opt/wonderful/toolchain/gcc-arm-none-eabi/lib/gcc/arm-none-eabi/13.2.0/../../../../arm-none-eabi/lib/libc.a(libc_string_strstr.c.o)
 .comment       0x00000022       0x23 /opt/wonderful/toolchain/gcc-arm-none-eabi/lib/gcc/arm-none-eabi/13.2.0/../../../../arm-none-eabi/lib/libc.a(libc_time_lcltime.c.o)
 .comment       0x00000022       0x23 /opt/wonderful/toolchain/gcc-arm-none-eabi/lib/gcc/arm-none-eabi/13.2.0/../../../../arm-none-eabi/lib/libc.a(libc_time_lcltime_r.c.o)
 .comment       0x00000022       0x23 /opt/wonderful/toolchain/gcc-arm-none-eabi/lib/gcc/arm-none-eabi/13.2.0/../../../../arm-none-eabi/lib/libc.a(libc_time_lcltime_buf.c.o)
 .comment       0x00000022       0x23 /opt/wonderful/toolchain/gcc-arm-none-eabi/lib/gcc/arm-none-eabi/13.2.0/../../../../arm-none-eabi/lib/libc.a(libc_time_month_lengths.c.o)
 .comment       0x00000022       0x23 /opt/wonderful/toolchain/gcc-arm-none-eabi/lib/gcc/arm-none-eabi/13.2.0/../../../../arm-none-eabi/lib/libc.a(libc_time_time.c.o)
 .comment       0x00000022       0x23 /opt/wonderful/toolchain/gcc-arm-none-eabi/lib/gcc/arm-none-eabi/13.2.0/../../../../arm-none-eabi/lib/libc.a(libc_time_tzcalc_limits.c.o)
 .comment       0x00000022       0x23 /opt/wonderful/toolchain/gcc-arm-none-eabi/lib/gcc/arm-none-eabi/13.2.0/../../../../arm-none-eabi/lib/libc.a(libc_time_tzset.c.o)
 .comment       0x00000022       0x23 /opt/wonderful/toolchain/gcc-arm-none-eabi/lib/gcc/arm-none-eabi/13.2.0/../../../../arm-none-eabi/lib/libc.a(libc_time_tzvars.c.o)
 .comment       0x00000022       0x23 /opt/wonderful/toolchain/gcc-arm-none-eabi/lib/gcc/arm-none-eabi/13.2.0/../../../../arm-none-eabi/lib/libc.a(libc_tinystdio_fclose.c.o)
 .comment       0x00000022       0x23 /opt/wonderful/toolchain/gcc-arm-none-eabi/lib/gcc/arm-none-eabi/13.2.0/../../../../arm-none-eabi/lib/libc.a(libc_tinystdio_fflush.c.o)
 .comment       0x00000022       0x23 /opt/wonderful/toolchain/gcc-arm-none-eabi/lib/gcc/arm-none-eabi/13.2.0/../../../../arm-none-eabi/lib/libc.a(libc_tinystdio_fileno.c.o)
 .comment       0x00000022       0x23 /opt/wonderful/toolchain/gcc-arm-none-eabi/lib/gcc/arm-none-eabi/13.2.0/../../../../arm-none-eabi/lib/libc.a(libc_tinystdio_fread.c.o)
 .comment       0x00000022       0x23 /opt/wonderful/toolchain/gcc-arm-none-eabi/lib/gcc/arm-none-eabi/13.2.0/../../../../arm-none-eabi/lib/libc.a(libc_tinystdio_fseek.c.o)
 .comment       0x00000022       0x23 /opt/wonderful/toolchain/gcc-arm-none-eabi/lib/gcc/arm-none-eabi/13.2.0/../../../../arm-none-eabi/lib/libc.a(libc_tinystdio_ftell.c.o)
 .comment       0x00000022       0x23 /opt/wonderful/toolchain/gcc-arm-none-eabi/lib/gcc/arm-none-eabi/13.2.0/../../../../arm-none-eabi/lib/libc.a(libc_tinystdio_printf.c.o)
 .comment       0x00000022       0x23 /opt/wonderful/toolchain/gcc-arm-none-eabi/lib/gcc/arm-none-eabi/13.2.0/../../../../arm-none-eabi/lib/libc.a(libc_tinystdio_puts.c.o)
 .comment       0x00000022       0x23 /opt/wonderful/toolchain/gcc-arm-none-eabi/lib/gcc/arm-none-eabi/13.2.0/../../../../arm-none-eabi/lib/libc.a(libc_tinystdio_rewind.c.o)
 .comment       0x00000022       0x23 /opt/wonderful/toolchain/gcc-arm-none-eabi/lib/gcc/arm-none-eabi/13.2.0/../../../../arm-none-eabi/lib/libc.a(libc_tinystdio_setvbuf.c.o)
 .comment       0x00000022       0x23 /opt/wonderful/toolchain/gcc-arm-none-eabi/lib/gcc/arm-none-eabi/13.2.0/../../../../arm-none-eabi/lib/libc.a(libc_tinystdio_snprintf.c.o)
 .comment       0x00000022       0x23 /opt/wonderful/toolchain/gcc-arm-none-eabi/lib/gcc/arm-none-eabi/13.2.0/../../../../arm-none-eabi/lib/libc.a(libc_tinystdio_sprintf.c.o)
 .comment       0x00000022       0x23 /opt/wonderful/toolchain/gcc-arm-none-eabi/lib/gcc/arm-none-eabi/13.2.0/../../../../arm-none-eabi/lib/libc.a(libc_tinystdio_sscanf.c.o)
 .comment       0x00000022       0x23 /opt/wonderful/toolchain/gcc-arm-none-eabi/lib/gcc/arm-none-eabi/13.2.0/../../../../arm-none-eabi/lib/libc.a(libc_tinystdio_strtoul.c.o)
 .comment       0x00000022       0x23 /opt/wonderful/toolchain/gcc-arm-none-eabi/lib/gcc/arm-none-eabi/13.2.0/../../../../arm-none-eabi/lib/libc.a(libc_tinystdio_vfprintf.c.o)
 .comment       0x00000022       0x23 /opt/wonderful/toolchain/gcc-arm-none-eabi/lib/gcc/arm-none-eabi/13.2.0/../../../../arm-none-eabi/lib/libc.a(libc_tinystdio_vfscanf.c.o)
 .comment       0x00000022       0x23 /opt/wonderful/toolchain/gcc-arm-none-eabi/lib/gcc/arm-none-eabi/13.2.0/../../../../arm-none-eabi/lib/libc.a(libc_tinystdio_dtoa_ryu.c.o)
 .comment       0x00000022       0x23 /opt/wonderful/toolchain/gcc-arm-none-eabi/lib/gcc/arm-none-eabi/13.2.0/../../../../arm-none-eabi/lib/libc.a(libc_tinystdio_ryu_table.c.o)
 .comment       0x00000022       0x23 /opt/wonderful/toolchain/gcc-arm-none-eabi/lib/gcc/arm-none-eabi/13.2.0/../../../../arm-none-eabi/lib/libc.a(libc_tinystdio_atod_ryu.c.o)
 .comment       0x00000022       0x23 /opt/wonderful/toolchain/gcc-arm-none-eabi/lib/gcc/arm-none-eabi/13.2.0/../../../../arm-none-eabi/lib/libc.a(libc_tinystdio_atof_ryu.c.o)
 .comment       0x00000022       0x23 /opt/wonderful/toolchain/gcc-arm-none-eabi/lib/gcc/arm-none-eabi/13.2.0/../../../../arm-none-eabi/lib/libc.a(libc_tinystdio_ryu_log2pow5.c.o)
 .comment       0x00000022       0x23 /opt/wonderful/toolchain/gcc-arm-none-eabi/lib/gcc/arm-none-eabi/13.2.0/../../../../arm-none-eabi/lib/libc.a(libc_tinystdio_ryu_log10.c.o)
 .comment       0x00000022       0x23 /opt/wonderful/toolchain/gcc-arm-none-eabi/lib/gcc/arm-none-eabi/13.2.0/../../../../arm-none-eabi/lib/libc.a(libc_tinystdio_ryu_pow5bits.c.o)
 .comment       0x00000022       0x23 /opt/wonderful/toolchain/gcc-arm-none-eabi/lib/gcc/arm-none-eabi/13.2.0/../../../../arm-none-eabi/lib/libc.a(libc_tinystdio_ryu_umul128.c.o)
 .comment       0x00000022       0x23 /opt/wonderful/toolchain/gcc-arm-none-eabi/lib/gcc/arm-none-eabi/13.2.0/../../../../arm-none-eabi/lib/libc.a(libc_tinystdio_ryu_divpow2.c.o)
 .comment       0x00000022       0x23 /opt/wonderful/toolchain/gcc-arm-none-eabi/lib/gcc/arm-none-eabi/13.2.0/../../../../arm-none-eabi/lib/libc.a(libc_tinystdio_exchange.c.o)
 .comment       0x00000022       0x23 /opt/wonderful/toolchain/gcc-arm-none-eabi/lib/gcc/arm-none-eabi/13.2.0/../../../../arm-none-eabi/lib/libc.a(libc_tinystdio_fopen.c.o)
 .comment       0x00000022       0x23 /opt/wonderful/toolchain/gcc-arm-none-eabi/lib/gcc/arm-none-eabi/13.2.0/../../../../arm-none-eabi/lib/libc.a(libc_tinystdio_fdopen.c.o)
 .comment       0x00000022       0x23 /opt/wonderful/toolchain/gcc-arm-none-eabi/lib/gcc/arm-none-eabi/13.2.0/../../../../arm-none-eabi/lib/libc.a(memmove.c.o)
 .comment       0x00000022       0x23 /opt/wonderful/toolchain/gcc-arm-none-eabi/lib/gcc/arm-none-eabi/13.2.0/../../../../arm-none-eabi/lib/libc.a(libc_misc_fini.c.o)
 .comment       0x00000022       0x23 /opt/wonderful/toolchain/gcc-arm-none-eabi/lib/gcc/arm-none-eabi/13.2.0/../../../../arm-none-eabi/lib/libc.a(libc_stdlib_getenv.c.o)
 .comment       0x00000022       0x23 /opt/wonderful/toolchain/gcc-arm-none-eabi/lib/gcc/arm-none-eabi/13.2.0/../../../../arm-none-eabi/lib/libc.a(libc_stdlib_getenv_r.c.o)
 .comment       0x00000022       0x23 /opt/wonderful/toolchain/gcc-arm-none-eabi/lib/gcc/arm-none-eabi/13.2.0/../../../../arm-none-eabi/lib/libc.a(libc_string_strnlen.c.o)
 .comment       0x00000022       0x23 /opt/wonderful/toolchain/gcc-arm-none-eabi/lib/gcc/arm-none-eabi/13.2.0/../../../../arm-none-eabi/lib/libc.a(libc_time_gettzinfo.c.o)
 .comment       0x00000022       0x23 /opt/wonderful/toolchain/gcc-arm-none-eabi/lib/gcc/arm-none-eabi/13.2.0/../../../../arm-none-eabi/lib/libc.a(libc_time_gmtime_r.c.o)
 .comment       0x00000022       0x23 /opt/wonderful/toolchain/gcc-arm-none-eabi/lib/gcc/arm-none-eabi/13.2.0/../../../../arm-none-eabi/lib/libc.a(libc_tinystdio_bufio.c.o)
 .comment       0x00000022       0x23 /opt/wonderful/toolchain/gcc-arm-none-eabi/lib/gcc/arm-none-eabi/13.2.0/../../../../arm-none-eabi/lib/libc.a(libc_tinystdio_dtox_engine.c.o)
 .comment       0x00000022       0x23 /opt/wonderful/toolchain/gcc-arm-none-eabi/lib/gcc/arm-none-eabi/13.2.0/../../../../arm-none-eabi/lib/libc.a(libc_tinystdio_fgetc.c.o)
 .comment       0x00000022       0x23 /opt/wonderful/toolchain/gcc-arm-none-eabi/lib/gcc/arm-none-eabi/13.2.0/../../../../arm-none-eabi/lib/libc.a(libc_tinystdio_filestrget.c.o)
 .comment       0x00000022       0x23 /opt/wonderful/toolchain/gcc-arm-none-eabi/lib/gcc/arm-none-eabi/13.2.0/../../../../arm-none-eabi/lib/libc.a(libc_tinystdio_filestrput.c.o)
 .comment       0x00000022       0x23 /opt/wonderful/toolchain/gcc-arm-none-eabi/lib/gcc/arm-none-eabi/13.2.0/../../../../arm-none-eabi/lib/libc.a(libc_tinystdio_fseeko.c.o)
 .comment       0x00000022       0x23 /opt/wonderful/toolchain/gcc-arm-none-eabi/lib/gcc/arm-none-eabi/13.2.0/../../../../arm-none-eabi/lib/libc.a(libc_tinystdio_sflags.c.o)
 .comment       0x00000022       0x23 /opt/wonderful/toolchain/gcc-arm-none-eabi/lib/gcc/arm-none-eabi/13.2.0/../../../../arm-none-eabi/lib/libc.a(libc_tinystdio_ungetc.c.o)
 .comment       0x00000022       0x23 /opt/wonderful/toolchain/gcc-arm-none-eabi/lib/gcc/arm-none-eabi/13.2.0/../../../../arm-none-eabi/lib/libc.a(libc_tinystdio_compare_exchange.c.o)
 .comment       0x00000022       0x23 /opt/wonderful/toolchain/gcc-arm-none-eabi/lib/gcc/arm-none-eabi/13.2.0/../../../../arm-none-eabi/lib/libc.a(libc_stdlib_environ.c.o)
 .comment       0x00000022       0x23 /opt/wonderful/toolchain/gcc-arm-none-eabi/lib/gcc/arm-none-eabi/13.2.0/thumb/libgcc.a(_muldi3.o)
 .comment       0x00000022       0x23 /opt/wonderful/toolchain/gcc-arm-none-eabi/lib/gcc/arm-none-eabi/13.2.0/thumb/libgcc.a(_udivmoddi4.o)
 .comment       0x00000022       0x23 /opt/wonderful/thirdparty/blocksds/core/libs/libnds/lib/libnds9.a(syscalls.c.o)

.ARM.attributes
                0x00000000       0x2d
 .ARM.attributes
                0x00000000       0x2b build/source/main.cpp.o
 .ARM.attributes
                0x0000002b       0x21 /opt/wonderful/thirdparty/blocksds/core/sys/crts/ds_arm9_crt0.o
 .ARM.attributes
                0x0000004c       0x2b /opt/wonderful/thirdparty/blocksds/external/nflib/lib/libnflib.a(nf_2d.c.o)
 .ARM.attributes
                0x00000077       0x2b /opt/wonderful/thirdparty/blocksds/external/nflib/lib/libnflib.a(nf_basic.c.o)
 .ARM.attributes
                0x000000a2       0x2b /opt/wonderful/thirdparty/blocksds/external/nflib/lib/libnflib.a(nf_sprite256.c.o)
 .ARM.attributes
                0x000000cd       0x2b /opt/wonderful/thirdparty/blocksds/external/nflib/lib/libnflib.a(nf_text.c.o)
 .ARM.attributes
                0x000000f8       0x2b /opt/wonderful/thirdparty/blocksds/external/nflib/lib/libnflib.a(nf_tiledbg.c.o)
 .ARM.attributes
                0x00000123       0x21 /opt/wonderful/thirdparty/blocksds/core/libs/libnds/lib/libnds9.a(IntrWait.s.o)
 .ARM.attributes
                0x00000144       0x21 /opt/wonderful/thirdparty/blocksds/core/libs/libnds/lib/libnds9.a(mpu_setup.s.o)
 .ARM.attributes
                0x00000165       0x1b /opt/wonderful/thirdparty/blocksds/core/libs/libnds/lib/libnds9.a(dma.s.o)
 .ARM.attributes
                0x00000180       0x1b /opt/wonderful/thirdparty/blocksds/core/libs/libnds/lib/libnds9.a(memcpy.s.o)
 .ARM.attributes
                0x0000019b       0x1b /opt/wonderful/thirdparty/blocksds/core/libs/libnds/lib/libnds9.a(memset.s.o)
 .ARM.attributes
                0x000001b6       0x2b /opt/wonderful/thirdparty/blocksds/core/libs/libnds/lib/libnds9.a(touch.c.o)
 .ARM.attributes
                0x000001e1       0x2b /opt/wonderful/thirdparty/blocksds/core/libs/libnds/lib/libnds9.a(sprite.c.o)
 .ARM.attributes
                0x0000020c       0x2b /opt/wonderful/thirdparty/blocksds/core/libs/libnds/lib/libnds9.a(sprite_alloc.c.o)
 .ARM.attributes
                0x00000237       0x2b /opt/wonderful/thirdparty/blocksds/core/libs/libnds/lib/libnds9.a(video.c.o)
 .ARM.attributes
                0x00000262       0x2b /opt/wonderful/thirdparty/blocksds/core/libs/libnds/lib/libnds9.a(securearea.c.o)
 .ARM.attributes
                0x0000028d       0x2b /opt/wonderful/thirdparty/blocksds/core/libs/libnds/lib/libnds9.a(keys.c.o)
 .ARM.attributes
                0x000002b8       0x2b /opt/wonderful/thirdparty/blocksds/core/libs/libnds/lib/libnds9.a(initSystem.c.o)
 .ARM.attributes
                0x000002e3       0x2b /opt/wonderful/thirdparty/blocksds/core/libs/libnds/lib/libnds9.a(cache.c.o)
 .ARM.attributes
                0x0000030e       0x2b /opt/wonderful/thirdparty/blocksds/core/libs/libnds/lib/libnds9.a(console.c.o)
 .ARM.attributes
                0x00000339       0x2b /opt/wonderful/thirdparty/blocksds/core/libs/libnds/lib/libnds9.a(trig.c.o)
 .ARM.attributes
                0x00000364       0x2b /opt/wonderful/thirdparty/blocksds/core/libs/libnds/lib/libnds9.a(filesystem.c.o)
 .ARM.attributes
                0x0000038f       0x2b /opt/wonderful/thirdparty/blocksds/core/libs/libnds/lib/libnds9.a(fatfs.c.o)
 .ARM.attributes
                0x000003ba       0x2b /opt/wonderful/thirdparty/blocksds/core/libs/libnds/lib/libnds9.a(ff.c.o)
 .ARM.attributes
                0x000003e5       0x2b /opt/wonderful/thirdparty/blocksds/core/libs/libnds/lib/libnds9.a(ffunicode.c.o)
 .ARM.attributes
                0x00000410       0x2b /opt/wonderful/thirdparty/blocksds/core/libs/libnds/lib/libnds9.a(ffsystem.c.o)
 .ARM.attributes
                0x0000043b       0x2b /opt/wonderful/thirdparty/blocksds/core/libs/libnds/lib/libnds9.a(diskio.c.o)
 .ARM.attributes
                0x00000466       0x2b /opt/wonderful/thirdparty/blocksds/core/libs/libnds/lib/libnds9.a(cache.c.o)
 .ARM.attributes
                0x00000491       0x2b /opt/wonderful/thirdparty/blocksds/core/libs/libnds/lib/libnds9.a(nitrofs.c.o)
 .ARM.attributes
                0x000004bc       0x2b /opt/wonderful/thirdparty/blocksds/core/libs/libnds/lib/libnds9.a(crt0_argv.c.o)
 .ARM.attributes
                0x000004e7       0x2b /opt/wonderful/thirdparty/blocksds/core/libs/libnds/lib/libnds9.a(chdir.c.o)
 .ARM.attributes
                0x00000512       0x2b /opt/wonderful/thirdparty/blocksds/core/libs/libnds/lib/libnds9.a(iob.c.o)
 .ARM.attributes
                0x0000053d       0x2b /opt/wonderful/thirdparty/blocksds/core/libs/libnds/lib/libnds9.a(dldi.c.o)
 .ARM.attributes
                0x00000568       0x2b /opt/wonderful/thirdparty/blocksds/core/libs/libnds/lib/libnds9.a(sdmmc.twl.c.o)
 .ARM.attributes
                0x00000593       0x2b /opt/wonderful/thirdparty/blocksds/core/libs/libnds/lib/libnds9.a(fifosystem.c.o)
 .ARM.attributes
                0x000005be       0x2b /opt/wonderful/thirdparty/blocksds/core/libs/libnds/lib/libnds9.a(interrupts.c.o)
 .ARM.attributes
                0x000005e9       0x2b /opt/wonderful/thirdparty/blocksds/core/libs/libnds/lib/libnds9.a(libnds_exit.c.o)
 .ARM.attributes
                0x00000614       0x2b /opt/wonderful/thirdparty/blocksds/core/libs/libnds/lib/libnds9.a(card.c.o)
 .ARM.attributes
                0x0000063f       0x2b /opt/wonderful/thirdparty/blocksds/core/libs/libnds/lib/libnds9.a(sbrk.c.o)
 .ARM.attributes
                0x0000066a       0x2b /opt/wonderful/thirdparty/blocksds/core/libs/libnds/lib/libnds9.a(threads.c.o)
 .ARM.attributes
                0x00000695       0x2b /opt/wonderful/thirdparty/blocksds/core/libs/libnds/lib/libnds9.a(default_font.bin.o)
 .ARM.attributes
                0x000006c0       0x21 /opt/wonderful/thirdparty/blocksds/core/libs/libnds/lib/libnds9.a(cpu_clock.s.o)
 .ARM.attributes
                0x000006e1       0x1b /opt/wonderful/thirdparty/blocksds/core/libs/libnds/lib/libnds9.a(dldi_stub.s.o)
 .ARM.attributes
                0x000006fc       0x1b /opt/wonderful/thirdparty/blocksds/core/libs/libnds/lib/libnds9.a(interruptDispatcher.s.o)
 .ARM.attributes
                0x00000717       0x1b /opt/wonderful/thirdparty/blocksds/core/libs/libnds/lib/libnds9.a(coroutine.s.o)
 .ARM.attributes
                0x00000732       0x1b /opt/wonderful/thirdparty/blocksds/core/libs/libnds/lib/libnds9.a(aeabi_read_tp.s.o)
 .ARM.attributes
                0x0000074d       0x2b /opt/wonderful/thirdparty/blocksds/core/libs/libnds/lib/libnds9.a(background.c.o)
 .ARM.attributes
                0x00000778       0x2b /opt/wonderful/thirdparty/blocksds/core/libs/libnds/lib/libnds9.a(system.c.o)
 .ARM.attributes
                0x000007a3       0x2b /opt/wonderful/thirdparty/blocksds/core/libs/libnds/lib/libnds9.a(keyboard.c.o)
 .ARM.attributes
                0x000007ce       0x2b /opt/wonderful/thirdparty/blocksds/core/libs/libnds/lib/libnds9.a(coroutine.c.o)
 .ARM.attributes
                0x000007f9       0x1c /opt/wonderful/toolchain/gcc-arm-none-eabi/lib/gcc/arm-none-eabi/13.2.0/../../../../arm-none-eabi/lib/libc.a(strcmp.S.o)
 .ARM.attributes
                0x00000815       0x1c /opt/wonderful/toolchain/gcc-arm-none-eabi/lib/gcc/arm-none-eabi/13.2.0/../../../../arm-none-eabi/lib/libc.a(strlen.S.o)
 .ARM.attributes
                0x00000831       0x2e /opt/wonderful/toolchain/gcc-arm-none-eabi/lib/gcc/arm-none-eabi/13.2.0/../../../../arm-none-eabi/lib/libc.a(malloc-calloc.c.o)
 .ARM.attributes
                0x0000085f       0x2e /opt/wonderful/toolchain/gcc-arm-none-eabi/lib/gcc/arm-none-eabi/13.2.0/../../../../arm-none-eabi/lib/libc.a(malloc-free.c.o)
 .ARM.attributes
                0x0000088d       0x2e /opt/wonderful/toolchain/gcc-arm-none-eabi/lib/gcc/arm-none-eabi/13.2.0/../../../../arm-none-eabi/lib/libc.a(malloc-malloc.c.o)
 .ARM.attributes
                0x000008bb       0x2e /opt/wonderful/toolchain/gcc-arm-none-eabi/lib/gcc/arm-none-eabi/13.2.0/../../../../arm-none-eabi/lib/libc.a(malloc-realloc.c.o)
 .ARM.attributes
                0x000008e9       0x2e /opt/wonderful/toolchain/gcc-arm-none-eabi/lib/gcc/arm-none-eabi/13.2.0/../../../../arm-none-eabi/lib/libc.a(libc_errno_errno.c.o)
 .ARM.attributes
                0x00000917       0x2e /opt/wonderful/toolchain/gcc-arm-none-eabi/lib/gcc/arm-none-eabi/13.2.0/../../../../arm-none-eabi/lib/libc.a(libc_misc_init.c.o)
 .ARM.attributes
                0x00000945       0x2e /opt/wonderful/toolchain/gcc-arm-none-eabi/lib/gcc/arm-none-eabi/13.2.0/../../../../arm-none-eabi/lib/libc.a(libc_misc_lock.c.o)
 .ARM.attributes
                0x00000973       0x2e /opt/wonderful/toolchain/gcc-arm-none-eabi/lib/gcc/arm-none-eabi/13.2.0/../../../../arm-none-eabi/lib/libc.a(libc_stdlib_pico-exit.c.o)
 .ARM.attributes
                0x000009a1       0x2e /opt/wonderful/toolchain/gcc-arm-none-eabi/lib/gcc/arm-none-eabi/13.2.0/../../../../arm-none-eabi/lib/libc.a(libc_string_memcmp.c.o)
 .ARM.attributes
                0x000009cf       0x2e /opt/wonderful/toolchain/gcc-arm-none-eabi/lib/gcc/arm-none-eabi/13.2.0/../../../../arm-none-eabi/lib/libc.a(libc_string_strchr.c.o)
 .ARM.attributes
                0x000009fd       0x2e /opt/wonderful/toolchain/gcc-arm-none-eabi/lib/gcc/arm-none-eabi/13.2.0/../../../../arm-none-eabi/lib/libc.a(libc_string_strdup.c.o)
 .ARM.attributes
                0x00000a2b       0x2e /opt/wonderful/toolchain/gcc-arm-none-eabi/lib/gcc/arm-none-eabi/13.2.0/../../../../arm-none-eabi/lib/libc.a(libc_string_strncmp.c.o)
 .ARM.attributes
                0x00000a59       0x2e /opt/wonderful/toolchain/gcc-arm-none-eabi/lib/gcc/arm-none-eabi/13.2.0/../../../../arm-none-eabi/lib/libc.a(libc_string_strstr.c.o)
 .ARM.attributes
                0x00000a87       0x2e /opt/wonderful/toolchain/gcc-arm-none-eabi/lib/gcc/arm-none-eabi/13.2.0/../../../../arm-none-eabi/lib/libc.a(libc_time_lcltime.c.o)
 .ARM.attributes
                0x00000ab5       0x2e /opt/wonderful/toolchain/gcc-arm-none-eabi/lib/gcc/arm-none-eabi/13.2.0/../../../../arm-none-eabi/lib/libc.a(libc_time_lcltime_r.c.o)
 .ARM.attributes
                0x00000ae3       0x2e /opt/wonderful/toolchain/gcc-arm-none-eabi/lib/gcc/arm-none-eabi/13.2.0/../../../../arm-none-eabi/lib/libc.a(libc_time_lcltime_buf.c.o)
 .ARM.attributes
                0x00000b11       0x2e /opt/wonderful/toolchain/gcc-arm-none-eabi/lib/gcc/arm-none-eabi/13.2.0/../../../../arm-none-eabi/lib/libc.a(libc_time_month_lengths.c.o)
 .ARM.attributes
                0x00000b3f       0x2e /opt/wonderful/toolchain/gcc-arm-none-eabi/lib/gcc/arm-none-eabi/13.2.0/../../../../arm-none-eabi/lib/libc.a(libc_time_time.c.o)
 .ARM.attributes
                0x00000b6d       0x2e /opt/wonderful/toolchain/gcc-arm-none-eabi/lib/gcc/arm-none-eabi/13.2.0/../../../../arm-none-eabi/lib/libc.a(libc_time_tzcalc_limits.c.o)
 .ARM.attributes
                0x00000b9b       0x2e /opt/wonderful/toolchain/gcc-arm-none-eabi/lib/gcc/arm-none-eabi/13.2.0/../../../../arm-none-eabi/lib/libc.a(libc_time_tzset.c.o)
 .ARM.attributes
                0x00000bc9       0x2e /opt/wonderful/toolchain/gcc-arm-none-eabi/lib/gcc/arm-none-eabi/13.2.0/../../../../arm-none-eabi/lib/libc.a(libc_time_tzvars.c.o)
 .ARM.attributes
                0x00000bf7       0x2e /opt/wonderful/toolchain/gcc-arm-none-eabi/lib/gcc/arm-none-eabi/13.2.0/../../../../arm-none-eabi/lib/libc.a(libc_tinystdio_fclose.c.o)
 .ARM.attributes
                0x00000c25       0x2e /opt/wonderful/toolchain/gcc-arm-none-eabi/lib/gcc/arm-none-eabi/13.2.0/../../../../arm-none-eabi/lib/libc.a(libc_tinystdio_fflush.c.o)
 .ARM.attributes
                0x00000c53       0x2e /opt/wonderful/toolchain/gcc-arm-none-eabi/lib/gcc/arm-none-eabi/13.2.0/../../../../arm-none-eabi/lib/libc.a(libc_tinystdio_fileno.c.o)
 .ARM.attributes
                0x00000c81       0x2e /opt/wonderful/toolchain/gcc-arm-none-eabi/lib/gcc/arm-none-eabi/13.2.0/../../../../arm-none-eabi/lib/libc.a(libc_tinystdio_fread.c.o)
 .ARM.attributes
                0x00000caf       0x2e /opt/wonderful/toolchain/gcc-arm-none-eabi/lib/gcc/arm-none-eabi/13.2.0/../../../../arm-none-eabi/lib/libc.a(libc_tinystdio_fseek.c.o)
 .ARM.attributes
                0x00000cdd       0x2e /opt/wonderful/toolchain/gcc-arm-none-eabi/lib/gcc/arm-none-eabi/13.2.0/../../../../arm-none-eabi/lib/libc.a(libc_tinystdio_ftell.c.o)
 .ARM.attributes
                0x00000d0b       0x2e /opt/wonderful/toolchain/gcc-arm-none-eabi/lib/gcc/arm-none-eabi/13.2.0/../../../../arm-none-eabi/lib/libc.a(libc_tinystdio_printf.c.o)
 .ARM.attributes
                0x00000d39       0x2e /opt/wonderful/toolchain/gcc-arm-none-eabi/lib/gcc/arm-none-eabi/13.2.0/../../../../arm-none-eabi/lib/libc.a(libc_tinystdio_puts.c.o)
 .ARM.attributes
                0x00000d67       0x2e /opt/wonderful/toolchain/gcc-arm-none-eabi/lib/gcc/arm-none-eabi/13.2.0/../../../../arm-none-eabi/lib/libc.a(libc_tinystdio_rewind.c.o)
 .ARM.attributes
                0x00000d95       0x2e /opt/wonderful/toolchain/gcc-arm-none-eabi/lib/gcc/arm-none-eabi/13.2.0/../../../../arm-none-eabi/lib/libc.a(libc_tinystdio_setvbuf.c.o)
 .ARM.attributes
                0x00000dc3       0x2e /opt/wonderful/toolchain/gcc-arm-none-eabi/lib/gcc/arm-none-eabi/13.2.0/../../../../arm-none-eabi/lib/libc.a(libc_tinystdio_snprintf.c.o)
 .ARM.attributes
                0x00000df1       0x2e /opt/wonderful/toolchain/gcc-arm-none-eabi/lib/gcc/arm-none-eabi/13.2.0/../../../../arm-none-eabi/lib/libc.a(libc_tinystdio_sprintf.c.o)
 .ARM.attributes
                0x00000e1f       0x2e /opt/wonderful/toolchain/gcc-arm-none-eabi/lib/gcc/arm-none-eabi/13.2.0/../../../../arm-none-eabi/lib/libc.a(libc_tinystdio_sscanf.c.o)
 .ARM.attributes
                0x00000e4d       0x2e /opt/wonderful/toolchain/gcc-arm-none-eabi/lib/gcc/arm-none-eabi/13.2.0/../../../../arm-none-eabi/lib/libc.a(libc_tinystdio_strtoul.c.o)
 .ARM.attributes
                0x00000e7b       0x2e /opt/wonderful/toolchain/gcc-arm-none-eabi/lib/gcc/arm-none-eabi/13.2.0/../../../../arm-none-eabi/lib/libc.a(libc_tinystdio_vfprintf.c.o)
 .ARM.attributes
                0x00000ea9       0x2e /opt/wonderful/toolchain/gcc-arm-none-eabi/lib/gcc/arm-none-eabi/13.2.0/../../../../arm-none-eabi/lib/libc.a(libc_tinystdio_vfscanf.c.o)
 .ARM.attributes
                0x00000ed7       0x2e /opt/wonderful/toolchain/gcc-arm-none-eabi/lib/gcc/arm-none-eabi/13.2.0/../../../../arm-none-eabi/lib/libc.a(libc_tinystdio_dtoa_ryu.c.o)
 .ARM.attributes
                0x00000f05       0x2e /opt/wonderful/toolchain/gcc-arm-none-eabi/lib/gcc/arm-none-eabi/13.2.0/../../../../arm-none-eabi/lib/libc.a(libc_tinystdio_ryu_table.c.o)
 .ARM.attributes
                0x00000f33       0x2e /opt/wonderful/toolchain/gcc-arm-none-eabi/lib/gcc/arm-none-eabi/13.2.0/../../../../arm-none-eabi/lib/libc.a(libc_tinystdio_atod_ryu.c.o)
 .ARM.attributes
                0x00000f61       0x2e /opt/wonderful/toolchain/gcc-arm-none-eabi/lib/gcc/arm-none-eabi/13.2.0/../../../../arm-none-eabi/lib/libc.a(libc_tinystdio_atof_ryu.c.o)
 .ARM.attributes
                0x00000f8f       0x2e /opt/wonderful/toolchain/gcc-arm-none-eabi/lib/gcc/arm-none-eabi/13.2.0/../../../../arm-none-eabi/lib/libc.a(libc_tinystdio_ryu_log2pow5.c.o)
 .ARM.attributes
                0x00000fbd       0x2e /opt/wonderful/toolchain/gcc-arm-none-eabi/lib/gcc/arm-none-eabi/13.2.0/../../../../arm-none-eabi/lib/libc.a(libc_tinystdio_ryu_log10.c.o)
 .ARM.attributes
                0x00000feb       0x2e /opt/wonderful/toolchain/gcc-arm-none-eabi/lib/gcc/arm-none-eabi/13.2.0/../../../../arm-none-eabi/lib/libc.a(libc_tinystdio_ryu_pow5bits.c.o)
 .ARM.attributes
                0x00001019       0x2e /opt/wonderful/toolchain/gcc-arm-none-eabi/lib/gcc/arm-none-eabi/13.2.0/../../../../arm-none-eabi/lib/libc.a(libc_tinystdio_ryu_umul128.c.o)
 .ARM.attributes
                0x00001047       0x2e /opt/wonderful/toolchain/gcc-arm-none-eabi/lib/gcc/arm-none-eabi/13.2.0/../../../../arm-none-eabi/lib/libc.a(libc_tinystdio_ryu_divpow2.c.o)
 .ARM.attributes
                0x00001075       0x2e /opt/wonderful/toolchain/gcc-arm-none-eabi/lib/gcc/arm-none-eabi/13.2.0/../../../../arm-none-eabi/lib/libc.a(libc_tinystdio_exchange.c.o)
 .ARM.attributes
                0x000010a3       0x2e /opt/wonderful/toolchain/gcc-arm-none-eabi/lib/gcc/arm-none-eabi/13.2.0/../../../../arm-none-eabi/lib/libc.a(libc_tinystdio_fopen.c.o)
 .ARM.attributes
                0x000010d1       0x2e /opt/wonderful/toolchain/gcc-arm-none-eabi/lib/gcc/arm-none-eabi/13.2.0/../../../../arm-none-eabi/lib/libc.a(libc_tinystdio_fdopen.c.o)
 .ARM.attributes
                0x000010ff       0x2e /opt/wonderful/toolchain/gcc-arm-none-eabi/lib/gcc/arm-none-eabi/13.2.0/../../../../arm-none-eabi/lib/libc.a(memmove.c.o)
 .ARM.attributes
                0x0000112d       0x2e /opt/wonderful/toolchain/gcc-arm-none-eabi/lib/gcc/arm-none-eabi/13.2.0/../../../../arm-none-eabi/lib/libc.a(libc_misc_fini.c.o)
 .ARM.attributes
                0x0000115b       0x2e /opt/wonderful/toolchain/gcc-arm-none-eabi/lib/gcc/arm-none-eabi/13.2.0/../../../../arm-none-eabi/lib/libc.a(libc_stdlib_getenv.c.o)
 .ARM.attributes
                0x00001189       0x2e /opt/wonderful/toolchain/gcc-arm-none-eabi/lib/gcc/arm-none-eabi/13.2.0/../../../../arm-none-eabi/lib/libc.a(libc_stdlib_getenv_r.c.o)
 .ARM.attributes
                0x000011b7       0x2e /opt/wonderful/toolchain/gcc-arm-none-eabi/lib/gcc/arm-none-eabi/13.2.0/../../../../arm-none-eabi/lib/libc.a(libc_string_strnlen.c.o)
 .ARM.attributes
                0x000011e5       0x2e /opt/wonderful/toolchain/gcc-arm-none-eabi/lib/gcc/arm-none-eabi/13.2.0/../../../../arm-none-eabi/lib/libc.a(libc_time_gettzinfo.c.o)
 .ARM.attributes
                0x00001213       0x2e /opt/wonderful/toolchain/gcc-arm-none-eabi/lib/gcc/arm-none-eabi/13.2.0/../../../../arm-none-eabi/lib/libc.a(libc_time_gmtime_r.c.o)
 .ARM.attributes
                0x00001241       0x2e /opt/wonderful/toolchain/gcc-arm-none-eabi/lib/gcc/arm-none-eabi/13.2.0/../../../../arm-none-eabi/lib/libc.a(libc_tinystdio_bufio.c.o)
 .ARM.attributes
                0x0000126f       0x2e /opt/wonderful/toolchain/gcc-arm-none-eabi/lib/gcc/arm-none-eabi/13.2.0/../../../../arm-none-eabi/lib/libc.a(libc_tinystdio_dtox_engine.c.o)
 .ARM.attributes
                0x0000129d       0x2e /opt/wonderful/toolchain/gcc-arm-none-eabi/lib/gcc/arm-none-eabi/13.2.0/../../../../arm-none-eabi/lib/libc.a(libc_tinystdio_fgetc.c.o)
 .ARM.attributes
                0x000012cb       0x2e /opt/wonderful/toolchain/gcc-arm-none-eabi/lib/gcc/arm-none-eabi/13.2.0/../../../../arm-none-eabi/lib/libc.a(libc_tinystdio_filestrget.c.o)
 .ARM.attributes
                0x000012f9       0x2e /opt/wonderful/toolchain/gcc-arm-none-eabi/lib/gcc/arm-none-eabi/13.2.0/../../../../arm-none-eabi/lib/libc.a(libc_tinystdio_filestrput.c.o)
 .ARM.attributes
                0x00001327       0x2e /opt/wonderful/toolchain/gcc-arm-none-eabi/lib/gcc/arm-none-eabi/13.2.0/../../../../arm-none-eabi/lib/libc.a(libc_tinystdio_fseeko.c.o)
 .ARM.attributes
                0x00001355       0x2e /opt/wonderful/toolchain/gcc-arm-none-eabi/lib/gcc/arm-none-eabi/13.2.0/../../../../arm-none-eabi/lib/libc.a(libc_tinystdio_sflags.c.o)
 .ARM.attributes
                0x00001383       0x2e /opt/wonderful/toolchain/gcc-arm-none-eabi/lib/gcc/arm-none-eabi/13.2.0/../../../../arm-none-eabi/lib/libc.a(libc_tinystdio_ungetc.c.o)
 .ARM.attributes
                0x000013b1       0x2e /opt/wonderful/toolchain/gcc-arm-none-eabi/lib/gcc/arm-none-eabi/13.2.0/../../../../arm-none-eabi/lib/libc.a(libc_tinystdio_compare_exchange.c.o)
 .ARM.attributes
                0x000013df       0x2e /opt/wonderful/toolchain/gcc-arm-none-eabi/lib/gcc/arm-none-eabi/13.2.0/../../../../arm-none-eabi/lib/libc.a(libc_stdlib_environ.c.o)
 .ARM.attributes
                0x0000140d       0x1c /opt/wonderful/toolchain/gcc-arm-none-eabi/lib/gcc/arm-none-eabi/13.2.0/thumb/libgcc.a(_thumb1_case_uqi.o)
 .ARM.attributes
                0x00001429       0x1c /opt/wonderful/toolchain/gcc-arm-none-eabi/lib/gcc/arm-none-eabi/13.2.0/thumb/libgcc.a(_udivsi3.o)
 .ARM.attributes
                0x00001445       0x1c /opt/wonderful/toolchain/gcc-arm-none-eabi/lib/gcc/arm-none-eabi/13.2.0/thumb/libgcc.a(_divsi3.o)
 .ARM.attributes
                0x00001461       0x1c /opt/wonderful/toolchain/gcc-arm-none-eabi/lib/gcc/arm-none-eabi/13.2.0/thumb/libgcc.a(_dvmd_tls.o)
 .ARM.attributes
                0x0000147d       0x1c /opt/wonderful/toolchain/gcc-arm-none-eabi/lib/gcc/arm-none-eabi/13.2.0/thumb/libgcc.a(_lshrdi3.o)
 .ARM.attributes
                0x00001499       0x1c /opt/wonderful/toolchain/gcc-arm-none-eabi/lib/gcc/arm-none-eabi/13.2.0/thumb/libgcc.a(_ashrdi3.o)
 .ARM.attributes
                0x000014b5       0x1c /opt/wonderful/toolchain/gcc-arm-none-eabi/lib/gcc/arm-none-eabi/13.2.0/thumb/libgcc.a(_ashldi3.o)
 .ARM.attributes
                0x000014d1       0x1c /opt/wonderful/toolchain/gcc-arm-none-eabi/lib/gcc/arm-none-eabi/13.2.0/thumb/libgcc.a(_arm_addsubdf3.o)
 .ARM.attributes
                0x000014ed       0x1c /opt/wonderful/toolchain/gcc-arm-none-eabi/lib/gcc/arm-none-eabi/13.2.0/thumb/libgcc.a(_arm_truncdfsf2.o)
 .ARM.attributes
                0x00001509       0x1c /opt/wonderful/toolchain/gcc-arm-none-eabi/lib/gcc/arm-none-eabi/13.2.0/thumb/libgcc.a(_clzsi2.o)
 .ARM.attributes
                0x00001525       0x1c /opt/wonderful/toolchain/gcc-arm-none-eabi/lib/gcc/arm-none-eabi/13.2.0/thumb/libgcc.a(_clzdi2.o)
 .ARM.attributes
                0x00001541       0x1c /opt/wonderful/toolchain/gcc-arm-none-eabi/lib/gcc/arm-none-eabi/13.2.0/thumb/libgcc.a(_aeabi_ldivmod.o)
 .ARM.attributes
                0x0000155d       0x1c /opt/wonderful/toolchain/gcc-arm-none-eabi/lib/gcc/arm-none-eabi/13.2.0/thumb/libgcc.a(_aeabi_uldivmod.o)
 .ARM.attributes
                0x00001579       0x2a /opt/wonderful/toolchain/gcc-arm-none-eabi/lib/gcc/arm-none-eabi/13.2.0/thumb/libgcc.a(_muldi3.o)
 .ARM.attributes
                0x000015a3       0x2a /opt/wonderful/toolchain/gcc-arm-none-eabi/lib/gcc/arm-none-eabi/13.2.0/thumb/libgcc.a(_udivmoddi4.o)
 .ARM.attributes
                0x000015cd       0x2b /opt/wonderful/thirdparty/blocksds/core/libs/libnds/lib/libnds9.a(syscalls.c.o)

.debug
 *(.debug)

.line
 *(.line)

.debug_srcinfo
 *(.debug_srcinfo)

.debug_sfnames
 *(.debug_sfnames)

.debug_aranges  0x00000000      0xb50
 *(.debug_aranges)
 .debug_aranges
                0x00000000       0x20 /opt/wonderful/toolchain/gcc-arm-none-eabi/lib/gcc/arm-none-eabi/13.2.0/../../../../arm-none-eabi/lib/libc.a(strcmp.S.o)
 .debug_aranges
                0x00000020       0x20 /opt/wonderful/toolchain/gcc-arm-none-eabi/lib/gcc/arm-none-eabi/13.2.0/../../../../arm-none-eabi/lib/libc.a(strlen.S.o)
 .debug_aranges
                0x00000040       0x20 /opt/wonderful/toolchain/gcc-arm-none-eabi/lib/gcc/arm-none-eabi/13.2.0/../../../../arm-none-eabi/lib/libc.a(malloc-calloc.c.o)
 .debug_aranges
                0x00000060       0x28 /opt/wonderful/toolchain/gcc-arm-none-eabi/lib/gcc/arm-none-eabi/13.2.0/../../../../arm-none-eabi/lib/libc.a(malloc-free.c.o)
 .debug_aranges
                0x00000088       0x20 /opt/wonderful/toolchain/gcc-arm-none-eabi/lib/gcc/arm-none-eabi/13.2.0/../../../../arm-none-eabi/lib/libc.a(malloc-malloc.c.o)
 .debug_aranges
                0x000000a8       0x20 /opt/wonderful/toolchain/gcc-arm-none-eabi/lib/gcc/arm-none-eabi/13.2.0/../../../../arm-none-eabi/lib/libc.a(malloc-realloc.c.o)
 .debug_aranges
                0x000000c8       0x18 /opt/wonderful/toolchain/gcc-arm-none-eabi/lib/gcc/arm-none-eabi/13.2.0/../../../../arm-none-eabi/lib/libc.a(libc_errno_errno.c.o)
 .debug_aranges
                0x000000e0       0x20 /opt/wonderful/toolchain/gcc-arm-none-eabi/lib/gcc/arm-none-eabi/13.2.0/../../../../arm-none-eabi/lib/libc.a(libc_misc_init.c.o)
 .debug_aranges
                0x00000100       0x58 /opt/wonderful/toolchain/gcc-arm-none-eabi/lib/gcc/arm-none-eabi/13.2.0/../../../../arm-none-eabi/lib/libc.a(libc_misc_lock.c.o)
 .debug_aranges
                0x00000158       0x20 /opt/wonderful/toolchain/gcc-arm-none-eabi/lib/gcc/arm-none-eabi/13.2.0/../../../../arm-none-eabi/lib/libc.a(libc_stdlib_pico-exit.c.o)
 .debug_aranges
                0x00000178       0x20 /opt/wonderful/toolchain/gcc-arm-none-eabi/lib/gcc/arm-none-eabi/13.2.0/../../../../arm-none-eabi/lib/libc.a(libc_string_memcmp.c.o)
 .debug_aranges
                0x00000198       0x20 /opt/wonderful/toolchain/gcc-arm-none-eabi/lib/gcc/arm-none-eabi/13.2.0/../../../../arm-none-eabi/lib/libc.a(libc_string_strchr.c.o)
 .debug_aranges
                0x000001b8       0x20 /opt/wonderful/toolchain/gcc-arm-none-eabi/lib/gcc/arm-none-eabi/13.2.0/../../../../arm-none-eabi/lib/libc.a(libc_string_strdup.c.o)
 .debug_aranges
                0x000001d8       0x20 /opt/wonderful/toolchain/gcc-arm-none-eabi/lib/gcc/arm-none-eabi/13.2.0/../../../../arm-none-eabi/lib/libc.a(libc_string_strncmp.c.o)
 .debug_aranges
                0x000001f8       0x20 /opt/wonderful/toolchain/gcc-arm-none-eabi/lib/gcc/arm-none-eabi/13.2.0/../../../../arm-none-eabi/lib/libc.a(libc_string_strstr.c.o)
 .debug_aranges
                0x00000218       0x20 /opt/wonderful/toolchain/gcc-arm-none-eabi/lib/gcc/arm-none-eabi/13.2.0/../../../../arm-none-eabi/lib/libc.a(libc_time_lcltime.c.o)
 .debug_aranges
                0x00000238       0x20 /opt/wonderful/toolchain/gcc-arm-none-eabi/lib/gcc/arm-none-eabi/13.2.0/../../../../arm-none-eabi/lib/libc.a(libc_time_lcltime_r.c.o)
 .debug_aranges
                0x00000258       0x18 /opt/wonderful/toolchain/gcc-arm-none-eabi/lib/gcc/arm-none-eabi/13.2.0/../../../../arm-none-eabi/lib/libc.a(libc_time_lcltime_buf.c.o)
 .debug_aranges
                0x00000270       0x18 /opt/wonderful/toolchain/gcc-arm-none-eabi/lib/gcc/arm-none-eabi/13.2.0/../../../../arm-none-eabi/lib/libc.a(libc_time_month_lengths.c.o)
 .debug_aranges
                0x00000288       0x20 /opt/wonderful/toolchain/gcc-arm-none-eabi/lib/gcc/arm-none-eabi/13.2.0/../../../../arm-none-eabi/lib/libc.a(libc_time_time.c.o)
 .debug_aranges
                0x000002a8       0x20 /opt/wonderful/toolchain/gcc-arm-none-eabi/lib/gcc/arm-none-eabi/13.2.0/../../../../arm-none-eabi/lib/libc.a(libc_time_tzcalc_limits.c.o)
 .debug_aranges
                0x000002c8       0x28 /opt/wonderful/toolchain/gcc-arm-none-eabi/lib/gcc/arm-none-eabi/13.2.0/../../../../arm-none-eabi/lib/libc.a(libc_time_tzset.c.o)
 .debug_aranges
                0x000002f0       0x18 /opt/wonderful/toolchain/gcc-arm-none-eabi/lib/gcc/arm-none-eabi/13.2.0/../../../../arm-none-eabi/lib/libc.a(libc_time_tzvars.c.o)
 .debug_aranges
                0x00000308       0x20 /opt/wonderful/toolchain/gcc-arm-none-eabi/lib/gcc/arm-none-eabi/13.2.0/../../../../arm-none-eabi/lib/libc.a(libc_tinystdio_fclose.c.o)
 .debug_aranges
                0x00000328       0x20 /opt/wonderful/toolchain/gcc-arm-none-eabi/lib/gcc/arm-none-eabi/13.2.0/../../../../arm-none-eabi/lib/libc.a(libc_tinystdio_fflush.c.o)
 .debug_aranges
                0x00000348       0x20 /opt/wonderful/toolchain/gcc-arm-none-eabi/lib/gcc/arm-none-eabi/13.2.0/../../../../arm-none-eabi/lib/libc.a(libc_tinystdio_fileno.c.o)
 .debug_aranges
                0x00000368       0x20 /opt/wonderful/toolchain/gcc-arm-none-eabi/lib/gcc/arm-none-eabi/13.2.0/../../../../arm-none-eabi/lib/libc.a(libc_tinystdio_fread.c.o)
 .debug_aranges
                0x00000388       0x20 /opt/wonderful/toolchain/gcc-arm-none-eabi/lib/gcc/arm-none-eabi/13.2.0/../../../../arm-none-eabi/lib/libc.a(libc_tinystdio_fseek.c.o)
 .debug_aranges
                0x000003a8       0x20 /opt/wonderful/toolchain/gcc-arm-none-eabi/lib/gcc/arm-none-eabi/13.2.0/../../../../arm-none-eabi/lib/libc.a(libc_tinystdio_ftell.c.o)
 .debug_aranges
                0x000003c8       0x20 /opt/wonderful/toolchain/gcc-arm-none-eabi/lib/gcc/arm-none-eabi/13.2.0/../../../../arm-none-eabi/lib/libc.a(libc_tinystdio_printf.c.o)
 .debug_aranges
                0x000003e8       0x20 /opt/wonderful/toolchain/gcc-arm-none-eabi/lib/gcc/arm-none-eabi/13.2.0/../../../../arm-none-eabi/lib/libc.a(libc_tinystdio_puts.c.o)
 .debug_aranges
                0x00000408       0x20 /opt/wonderful/toolchain/gcc-arm-none-eabi/lib/gcc/arm-none-eabi/13.2.0/../../../../arm-none-eabi/lib/libc.a(libc_tinystdio_rewind.c.o)
 .debug_aranges
                0x00000428       0x20 /opt/wonderful/toolchain/gcc-arm-none-eabi/lib/gcc/arm-none-eabi/13.2.0/../../../../arm-none-eabi/lib/libc.a(libc_tinystdio_setvbuf.c.o)
 .debug_aranges
                0x00000448       0x20 /opt/wonderful/toolchain/gcc-arm-none-eabi/lib/gcc/arm-none-eabi/13.2.0/../../../../arm-none-eabi/lib/libc.a(libc_tinystdio_snprintf.c.o)
 .debug_aranges
                0x00000468       0x20 /opt/wonderful/toolchain/gcc-arm-none-eabi/lib/gcc/arm-none-eabi/13.2.0/../../../../arm-none-eabi/lib/libc.a(libc_tinystdio_sprintf.c.o)
 .debug_aranges
                0x00000488       0x20 /opt/wonderful/toolchain/gcc-arm-none-eabi/lib/gcc/arm-none-eabi/13.2.0/../../../../arm-none-eabi/lib/libc.a(libc_tinystdio_sscanf.c.o)
 .debug_aranges
                0x000004a8       0x20 /opt/wonderful/toolchain/gcc-arm-none-eabi/lib/gcc/arm-none-eabi/13.2.0/../../../../arm-none-eabi/lib/libc.a(libc_tinystdio_strtoul.c.o)
 .debug_aranges
                0x000004c8       0x30 /opt/wonderful/toolchain/gcc-arm-none-eabi/lib/gcc/arm-none-eabi/13.2.0/../../../../arm-none-eabi/lib/libc.a(libc_tinystdio_vfprintf.c.o)
 .debug_aranges
                0x000004f8       0x40 /opt/wonderful/toolchain/gcc-arm-none-eabi/lib/gcc/arm-none-eabi/13.2.0/../../../../arm-none-eabi/lib/libc.a(libc_tinystdio_vfscanf.c.o)
 .debug_aranges
                0x00000538       0x30 /opt/wonderful/toolchain/gcc-arm-none-eabi/lib/gcc/arm-none-eabi/13.2.0/../../../../arm-none-eabi/lib/libc.a(libc_tinystdio_dtoa_ryu.c.o)
 .debug_aranges
                0x00000568       0x30 /opt/wonderful/toolchain/gcc-arm-none-eabi/lib/gcc/arm-none-eabi/13.2.0/../../../../arm-none-eabi/lib/libc.a(libc_tinystdio_ryu_table.c.o)
 .debug_aranges
                0x00000598       0x28 /opt/wonderful/toolchain/gcc-arm-none-eabi/lib/gcc/arm-none-eabi/13.2.0/../../../../arm-none-eabi/lib/libc.a(libc_tinystdio_atod_ryu.c.o)
 .debug_aranges
                0x000005c0       0x20 /opt/wonderful/toolchain/gcc-arm-none-eabi/lib/gcc/arm-none-eabi/13.2.0/../../../../arm-none-eabi/lib/libc.a(libc_tinystdio_atof_ryu.c.o)
 .debug_aranges
                0x000005e0       0x28 /opt/wonderful/toolchain/gcc-arm-none-eabi/lib/gcc/arm-none-eabi/13.2.0/../../../../arm-none-eabi/lib/libc.a(libc_tinystdio_ryu_log2pow5.c.o)
 .debug_aranges
                0x00000608       0x28 /opt/wonderful/toolchain/gcc-arm-none-eabi/lib/gcc/arm-none-eabi/13.2.0/../../../../arm-none-eabi/lib/libc.a(libc_tinystdio_ryu_log10.c.o)
 .debug_aranges
                0x00000630       0x20 /opt/wonderful/toolchain/gcc-arm-none-eabi/lib/gcc/arm-none-eabi/13.2.0/../../../../arm-none-eabi/lib/libc.a(libc_tinystdio_ryu_pow5bits.c.o)
 .debug_aranges
                0x00000650       0x28 /opt/wonderful/toolchain/gcc-arm-none-eabi/lib/gcc/arm-none-eabi/13.2.0/../../../../arm-none-eabi/lib/libc.a(libc_tinystdio_ryu_umul128.c.o)
 .debug_aranges
                0x00000678       0x30 /opt/wonderful/toolchain/gcc-arm-none-eabi/lib/gcc/arm-none-eabi/13.2.0/../../../../arm-none-eabi/lib/libc.a(libc_tinystdio_ryu_divpow2.c.o)
 .debug_aranges
                0x000006a8       0x20 /opt/wonderful/toolchain/gcc-arm-none-eabi/lib/gcc/arm-none-eabi/13.2.0/../../../../arm-none-eabi/lib/libc.a(libc_tinystdio_exchange.c.o)
 .debug_aranges
                0x000006c8       0x20 /opt/wonderful/toolchain/gcc-arm-none-eabi/lib/gcc/arm-none-eabi/13.2.0/../../../../arm-none-eabi/lib/libc.a(libc_tinystdio_fopen.c.o)
 .debug_aranges
                0x000006e8       0x20 /opt/wonderful/toolchain/gcc-arm-none-eabi/lib/gcc/arm-none-eabi/13.2.0/../../../../arm-none-eabi/lib/libc.a(libc_tinystdio_fdopen.c.o)
 .debug_aranges
                0x00000708       0x20 /opt/wonderful/toolchain/gcc-arm-none-eabi/lib/gcc/arm-none-eabi/13.2.0/../../../../arm-none-eabi/lib/libc.a(memmove.c.o)
 .debug_aranges
                0x00000728       0x20 /opt/wonderful/toolchain/gcc-arm-none-eabi/lib/gcc/arm-none-eabi/13.2.0/../../../../arm-none-eabi/lib/libc.a(libc_misc_fini.c.o)
 .debug_aranges
                0x00000748       0x20 /opt/wonderful/toolchain/gcc-arm-none-eabi/lib/gcc/arm-none-eabi/13.2.0/../../../../arm-none-eabi/lib/libc.a(libc_stdlib_getenv.c.o)
 .debug_aranges
                0x00000768       0x20 /opt/wonderful/toolchain/gcc-arm-none-eabi/lib/gcc/arm-none-eabi/13.2.0/../../../../arm-none-eabi/lib/libc.a(libc_stdlib_getenv_r.c.o)
 .debug_aranges
                0x00000788       0x20 /opt/wonderful/toolchain/gcc-arm-none-eabi/lib/gcc/arm-none-eabi/13.2.0/../../../../arm-none-eabi/lib/libc.a(libc_string_strnlen.c.o)
 .debug_aranges
                0x000007a8       0x20 /opt/wonderful/toolchain/gcc-arm-none-eabi/lib/gcc/arm-none-eabi/13.2.0/../../../../arm-none-eabi/lib/libc.a(libc_time_gettzinfo.c.o)
 .debug_aranges
                0x000007c8       0x20 /opt/wonderful/toolchain/gcc-arm-none-eabi/lib/gcc/arm-none-eabi/13.2.0/../../../../arm-none-eabi/lib/libc.a(libc_time_gmtime_r.c.o)
 .debug_aranges
                0x000007e8       0x70 /opt/wonderful/toolchain/gcc-arm-none-eabi/lib/gcc/arm-none-eabi/13.2.0/../../../../arm-none-eabi/lib/libc.a(libc_tinystdio_bufio.c.o)
 .debug_aranges
                0x00000858       0x20 /opt/wonderful/toolchain/gcc-arm-none-eabi/lib/gcc/arm-none-eabi/13.2.0/../../../../arm-none-eabi/lib/libc.a(libc_tinystdio_dtox_engine.c.o)
 .debug_aranges
                0x00000878       0x20 /opt/wonderful/toolchain/gcc-arm-none-eabi/lib/gcc/arm-none-eabi/13.2.0/../../../../arm-none-eabi/lib/libc.a(libc_tinystdio_fgetc.c.o)
 .debug_aranges
                0x00000898       0x20 /opt/wonderful/toolchain/gcc-arm-none-eabi/lib/gcc/arm-none-eabi/13.2.0/../../../../arm-none-eabi/lib/libc.a(libc_tinystdio_filestrget.c.o)
 .debug_aranges
                0x000008b8       0x20 /opt/wonderful/toolchain/gcc-arm-none-eabi/lib/gcc/arm-none-eabi/13.2.0/../../../../arm-none-eabi/lib/libc.a(libc_tinystdio_filestrput.c.o)
 .debug_aranges
                0x000008d8       0x20 /opt/wonderful/toolchain/gcc-arm-none-eabi/lib/gcc/arm-none-eabi/13.2.0/../../../../arm-none-eabi/lib/libc.a(libc_tinystdio_fseeko.c.o)
 .debug_aranges
                0x000008f8       0x20 /opt/wonderful/toolchain/gcc-arm-none-eabi/lib/gcc/arm-none-eabi/13.2.0/../../../../arm-none-eabi/lib/libc.a(libc_tinystdio_sflags.c.o)
 .debug_aranges
                0x00000918       0x20 /opt/wonderful/toolchain/gcc-arm-none-eabi/lib/gcc/arm-none-eabi/13.2.0/../../../../arm-none-eabi/lib/libc.a(libc_tinystdio_ungetc.c.o)
 .debug_aranges
                0x00000938       0x20 /opt/wonderful/toolchain/gcc-arm-none-eabi/lib/gcc/arm-none-eabi/13.2.0/../../../../arm-none-eabi/lib/libc.a(libc_tinystdio_compare_exchange.c.o)
 .debug_aranges
                0x00000958       0x18 /opt/wonderful/toolchain/gcc-arm-none-eabi/lib/gcc/arm-none-eabi/13.2.0/../../../../arm-none-eabi/lib/libc.a(libc_stdlib_environ.c.o)
 .debug_aranges
                0x00000970       0x20 /opt/wonderful/toolchain/gcc-arm-none-eabi/lib/gcc/arm-none-eabi/13.2.0/thumb/libgcc.a(_thumb1_case_uqi.o)
 .debug_aranges
                0x00000990       0x20 /opt/wonderful/toolchain/gcc-arm-none-eabi/lib/gcc/arm-none-eabi/13.2.0/thumb/libgcc.a(_udivsi3.o)
 .debug_aranges
                0x000009b0       0x20 /opt/wonderful/toolchain/gcc-arm-none-eabi/lib/gcc/arm-none-eabi/13.2.0/thumb/libgcc.a(_divsi3.o)
 .debug_aranges
                0x000009d0       0x20 /opt/wonderful/toolchain/gcc-arm-none-eabi/lib/gcc/arm-none-eabi/13.2.0/thumb/libgcc.a(_dvmd_tls.o)
 .debug_aranges
                0x000009f0       0x20 /opt/wonderful/toolchain/gcc-arm-none-eabi/lib/gcc/arm-none-eabi/13.2.0/thumb/libgcc.a(_lshrdi3.o)
 .debug_aranges
                0x00000a10       0x20 /opt/wonderful/toolchain/gcc-arm-none-eabi/lib/gcc/arm-none-eabi/13.2.0/thumb/libgcc.a(_ashrdi3.o)
 .debug_aranges
                0x00000a30       0x20 /opt/wonderful/toolchain/gcc-arm-none-eabi/lib/gcc/arm-none-eabi/13.2.0/thumb/libgcc.a(_ashldi3.o)
 .debug_aranges
                0x00000a50       0x20 /opt/wonderful/toolchain/gcc-arm-none-eabi/lib/gcc/arm-none-eabi/13.2.0/thumb/libgcc.a(_arm_addsubdf3.o)
 .debug_aranges
                0x00000a70       0x20 /opt/wonderful/toolchain/gcc-arm-none-eabi/lib/gcc/arm-none-eabi/13.2.0/thumb/libgcc.a(_arm_truncdfsf2.o)
 .debug_aranges
                0x00000a90       0x20 /opt/wonderful/toolchain/gcc-arm-none-eabi/lib/gcc/arm-none-eabi/13.2.0/thumb/libgcc.a(_clzsi2.o)
 .debug_aranges
                0x00000ab0       0x20 /opt/wonderful/toolchain/gcc-arm-none-eabi/lib/gcc/arm-none-eabi/13.2.0/thumb/libgcc.a(_clzdi2.o)
 .debug_aranges
                0x00000ad0       0x20 /opt/wonderful/toolchain/gcc-arm-none-eabi/lib/gcc/arm-none-eabi/13.2.0/thumb/libgcc.a(_aeabi_ldivmod.o)
 .debug_aranges
                0x00000af0       0x20 /opt/wonderful/toolchain/gcc-arm-none-eabi/lib/gcc/arm-none-eabi/13.2.0/thumb/libgcc.a(_aeabi_uldivmod.o)
 .debug_aranges
                0x00000b10       0x20 /opt/wonderful/toolchain/gcc-arm-none-eabi/lib/gcc/arm-none-eabi/13.2.0/thumb/libgcc.a(_muldi3.o)
 .debug_aranges
                0x00000b30       0x20 /opt/wonderful/toolchain/gcc-arm-none-eabi/lib/gcc/arm-none-eabi/13.2.0/thumb/libgcc.a(_udivmoddi4.o)

.debug_pubnames
 *(.debug_pubnames)

.debug_info     0x00000000     0xdeb5
 *(.debug_info)
 .debug_info    0x00000000       0x31 /opt/wonderful/toolchain/gcc-arm-none-eabi/lib/gcc/arm-none-eabi/13.2.0/../../../../arm-none-eabi/lib/libc.a(strcmp.S.o)
 .debug_info    0x00000031       0x31 /opt/wonderful/toolchain/gcc-arm-none-eabi/lib/gcc/arm-none-eabi/13.2.0/../../../../arm-none-eabi/lib/libc.a(strlen.S.o)
 .debug_info    0x00000062      0x209 /opt/wonderful/toolchain/gcc-arm-none-eabi/lib/gcc/arm-none-eabi/13.2.0/../../../../arm-none-eabi/lib/libc.a(malloc-calloc.c.o)
 .debug_info    0x0000026b      0x4dc /opt/wonderful/toolchain/gcc-arm-none-eabi/lib/gcc/arm-none-eabi/13.2.0/../../../../arm-none-eabi/lib/libc.a(malloc-free.c.o)
 .debug_info    0x00000747      0x56e /opt/wonderful/toolchain/gcc-arm-none-eabi/lib/gcc/arm-none-eabi/13.2.0/../../../../arm-none-eabi/lib/libc.a(malloc-malloc.c.o)
 .debug_info    0x00000cb5      0x518 /opt/wonderful/toolchain/gcc-arm-none-eabi/lib/gcc/arm-none-eabi/13.2.0/../../../../arm-none-eabi/lib/libc.a(malloc-realloc.c.o)
 .debug_info    0x000011cd       0x48 /opt/wonderful/toolchain/gcc-arm-none-eabi/lib/gcc/arm-none-eabi/13.2.0/../../../../arm-none-eabi/lib/libc.a(libc_errno_errno.c.o)
 .debug_info    0x00001215      0x10b /opt/wonderful/toolchain/gcc-arm-none-eabi/lib/gcc/arm-none-eabi/13.2.0/../../../../arm-none-eabi/lib/libc.a(libc_misc_init.c.o)
 .debug_info    0x00001320      0x143 /opt/wonderful/toolchain/gcc-arm-none-eabi/lib/gcc/arm-none-eabi/13.2.0/../../../../arm-none-eabi/lib/libc.a(libc_misc_lock.c.o)
 .debug_info    0x00001463      0x11a /opt/wonderful/toolchain/gcc-arm-none-eabi/lib/gcc/arm-none-eabi/13.2.0/../../../../arm-none-eabi/lib/libc.a(libc_stdlib_pico-exit.c.o)
 .debug_info    0x0000157d       0xfd /opt/wonderful/toolchain/gcc-arm-none-eabi/lib/gcc/arm-none-eabi/13.2.0/../../../../arm-none-eabi/lib/libc.a(libc_string_memcmp.c.o)
 .debug_info    0x0000167a       0xf4 /opt/wonderful/toolchain/gcc-arm-none-eabi/lib/gcc/arm-none-eabi/13.2.0/../../../../arm-none-eabi/lib/libc.a(libc_string_strchr.c.o)
 .debug_info    0x0000176e      0x190 /opt/wonderful/toolchain/gcc-arm-none-eabi/lib/gcc/arm-none-eabi/13.2.0/../../../../arm-none-eabi/lib/libc.a(libc_string_strdup.c.o)
 .debug_info    0x000018fe       0xe2 /opt/wonderful/toolchain/gcc-arm-none-eabi/lib/gcc/arm-none-eabi/13.2.0/../../../../arm-none-eabi/lib/libc.a(libc_string_strncmp.c.o)
 .debug_info    0x000019e0       0xf3 /opt/wonderful/toolchain/gcc-arm-none-eabi/lib/gcc/arm-none-eabi/13.2.0/../../../../arm-none-eabi/lib/libc.a(libc_string_strstr.c.o)
 .debug_info    0x00001ad3      0x185 /opt/wonderful/toolchain/gcc-arm-none-eabi/lib/gcc/arm-none-eabi/13.2.0/../../../../arm-none-eabi/lib/libc.a(libc_time_lcltime.c.o)
 .debug_info    0x00001c58      0x4f6 /opt/wonderful/toolchain/gcc-arm-none-eabi/lib/gcc/arm-none-eabi/13.2.0/../../../../arm-none-eabi/lib/libc.a(libc_time_lcltime_r.c.o)
 .debug_info    0x0000214e       0xf6 /opt/wonderful/toolchain/gcc-arm-none-eabi/lib/gcc/arm-none-eabi/13.2.0/../../../../arm-none-eabi/lib/libc.a(libc_time_lcltime_buf.c.o)
 .debug_info    0x00002244       0xc5 /opt/wonderful/toolchain/gcc-arm-none-eabi/lib/gcc/arm-none-eabi/13.2.0/../../../../arm-none-eabi/lib/libc.a(libc_time_month_lengths.c.o)
 .debug_info    0x00002309      0x155 /opt/wonderful/toolchain/gcc-arm-none-eabi/lib/gcc/arm-none-eabi/13.2.0/../../../../arm-none-eabi/lib/libc.a(libc_time_time.c.o)
 .debug_info    0x0000245e      0x3cd /opt/wonderful/toolchain/gcc-arm-none-eabi/lib/gcc/arm-none-eabi/13.2.0/../../../../arm-none-eabi/lib/libc.a(libc_time_tzcalc_limits.c.o)
 .debug_info    0x0000282b      0x5ff /opt/wonderful/toolchain/gcc-arm-none-eabi/lib/gcc/arm-none-eabi/13.2.0/../../../../arm-none-eabi/lib/libc.a(libc_time_tzset.c.o)
 .debug_info    0x00002e2a       0xbc /opt/wonderful/toolchain/gcc-arm-none-eabi/lib/gcc/arm-none-eabi/13.2.0/../../../../arm-none-eabi/lib/libc.a(libc_time_tzvars.c.o)
 .debug_info    0x00002ee6      0x1c8 /opt/wonderful/toolchain/gcc-arm-none-eabi/lib/gcc/arm-none-eabi/13.2.0/../../../../arm-none-eabi/lib/libc.a(libc_tinystdio_fclose.c.o)
 .debug_info    0x000030ae      0x18c /opt/wonderful/toolchain/gcc-arm-none-eabi/lib/gcc/arm-none-eabi/13.2.0/../../../../arm-none-eabi/lib/libc.a(libc_tinystdio_fflush.c.o)
 .debug_info    0x0000323a      0x426 /opt/wonderful/toolchain/gcc-arm-none-eabi/lib/gcc/arm-none-eabi/13.2.0/../../../../arm-none-eabi/lib/libc.a(libc_tinystdio_fileno.c.o)
 .debug_info    0x00003660      0x3ce /opt/wonderful/toolchain/gcc-arm-none-eabi/lib/gcc/arm-none-eabi/13.2.0/../../../../arm-none-eabi/lib/libc.a(libc_tinystdio_fread.c.o)
 .debug_info    0x00003a2e      0x33b /opt/wonderful/toolchain/gcc-arm-none-eabi/lib/gcc/arm-none-eabi/13.2.0/../../../../arm-none-eabi/lib/libc.a(libc_tinystdio_fseek.c.o)
 .debug_info    0x00003d69      0x2d6 /opt/wonderful/toolchain/gcc-arm-none-eabi/lib/gcc/arm-none-eabi/13.2.0/../../../../arm-none-eabi/lib/libc.a(libc_tinystdio_ftell.c.o)
 .debug_info    0x0000403f      0x218 /opt/wonderful/toolchain/gcc-arm-none-eabi/lib/gcc/arm-none-eabi/13.2.0/../../../../arm-none-eabi/lib/libc.a(libc_tinystdio_printf.c.o)
 .debug_info    0x00004257      0x1c7 /opt/wonderful/toolchain/gcc-arm-none-eabi/lib/gcc/arm-none-eabi/13.2.0/../../../../arm-none-eabi/lib/libc.a(libc_tinystdio_puts.c.o)
 .debug_info    0x0000441e      0x1b0 /opt/wonderful/toolchain/gcc-arm-none-eabi/lib/gcc/arm-none-eabi/13.2.0/../../../../arm-none-eabi/lib/libc.a(libc_tinystdio_rewind.c.o)
 .debug_info    0x000045ce      0x319 /opt/wonderful/toolchain/gcc-arm-none-eabi/lib/gcc/arm-none-eabi/13.2.0/../../../../arm-none-eabi/lib/libc.a(libc_tinystdio_setvbuf.c.o)
 .debug_info    0x000048e7      0x2d8 /opt/wonderful/toolchain/gcc-arm-none-eabi/lib/gcc/arm-none-eabi/13.2.0/../../../../arm-none-eabi/lib/libc.a(libc_tinystdio_snprintf.c.o)
 .debug_info    0x00004bbf      0x2c9 /opt/wonderful/toolchain/gcc-arm-none-eabi/lib/gcc/arm-none-eabi/13.2.0/../../../../arm-none-eabi/lib/libc.a(libc_tinystdio_sprintf.c.o)
 .debug_info    0x00004e88      0x2c5 /opt/wonderful/toolchain/gcc-arm-none-eabi/lib/gcc/arm-none-eabi/13.2.0/../../../../arm-none-eabi/lib/libc.a(libc_tinystdio_sscanf.c.o)
 .debug_info    0x0000514d      0x1ec /opt/wonderful/toolchain/gcc-arm-none-eabi/lib/gcc/arm-none-eabi/13.2.0/../../../../arm-none-eabi/lib/libc.a(libc_tinystdio_strtoul.c.o)
 .debug_info    0x00005339      0xbd5 /opt/wonderful/toolchain/gcc-arm-none-eabi/lib/gcc/arm-none-eabi/13.2.0/../../../../arm-none-eabi/lib/libc.a(libc_tinystdio_vfprintf.c.o)
 .debug_info    0x00005f0e     0x12a6 /opt/wonderful/toolchain/gcc-arm-none-eabi/lib/gcc/arm-none-eabi/13.2.0/../../../../arm-none-eabi/lib/libc.a(libc_tinystdio_vfscanf.c.o)
 .debug_info    0x000071b4     0x11f0 /opt/wonderful/toolchain/gcc-arm-none-eabi/lib/gcc/arm-none-eabi/13.2.0/../../../../arm-none-eabi/lib/libc.a(libc_tinystdio_dtoa_ryu.c.o)
 .debug_info    0x000083a4      0x584 /opt/wonderful/toolchain/gcc-arm-none-eabi/lib/gcc/arm-none-eabi/13.2.0/../../../../arm-none-eabi/lib/libc.a(libc_tinystdio_ryu_table.c.o)
 .debug_info    0x00008928      0x6a6 /opt/wonderful/toolchain/gcc-arm-none-eabi/lib/gcc/arm-none-eabi/13.2.0/../../../../arm-none-eabi/lib/libc.a(libc_tinystdio_atod_ryu.c.o)
 .debug_info    0x00008fce      0x5ad /opt/wonderful/toolchain/gcc-arm-none-eabi/lib/gcc/arm-none-eabi/13.2.0/../../../../arm-none-eabi/lib/libc.a(libc_tinystdio_atof_ryu.c.o)
 .debug_info    0x0000957b      0x12e /opt/wonderful/toolchain/gcc-arm-none-eabi/lib/gcc/arm-none-eabi/13.2.0/../../../../arm-none-eabi/lib/libc.a(libc_tinystdio_ryu_log2pow5.c.o)
 .debug_info    0x000096a9       0xfb /opt/wonderful/toolchain/gcc-arm-none-eabi/lib/gcc/arm-none-eabi/13.2.0/../../../../arm-none-eabi/lib/libc.a(libc_tinystdio_ryu_log10.c.o)
 .debug_info    0x000097a4       0xd2 /opt/wonderful/toolchain/gcc-arm-none-eabi/lib/gcc/arm-none-eabi/13.2.0/../../../../arm-none-eabi/lib/libc.a(libc_tinystdio_ryu_pow5bits.c.o)
 .debug_info    0x00009876      0x2ba /opt/wonderful/toolchain/gcc-arm-none-eabi/lib/gcc/arm-none-eabi/13.2.0/../../../../arm-none-eabi/lib/libc.a(libc_tinystdio_ryu_umul128.c.o)
 .debug_info    0x00009b30      0x33a /opt/wonderful/toolchain/gcc-arm-none-eabi/lib/gcc/arm-none-eabi/13.2.0/../../../../arm-none-eabi/lib/libc.a(libc_tinystdio_ryu_divpow2.c.o)
 .debug_info    0x00009e6a      0x147 /opt/wonderful/toolchain/gcc-arm-none-eabi/lib/gcc/arm-none-eabi/13.2.0/../../../../arm-none-eabi/lib/libc.a(libc_tinystdio_exchange.c.o)
 .debug_info    0x00009fb1      0x266 /opt/wonderful/toolchain/gcc-arm-none-eabi/lib/gcc/arm-none-eabi/13.2.0/../../../../arm-none-eabi/lib/libc.a(libc_tinystdio_fopen.c.o)
 .debug_info    0x0000a217      0x6fc /opt/wonderful/toolchain/gcc-arm-none-eabi/lib/gcc/arm-none-eabi/13.2.0/../../../../arm-none-eabi/lib/libc.a(libc_tinystdio_fdopen.c.o)
 .debug_info    0x0000a913      0x109 /opt/wonderful/toolchain/gcc-arm-none-eabi/lib/gcc/arm-none-eabi/13.2.0/../../../../arm-none-eabi/lib/libc.a(memmove.c.o)
 .debug_info    0x0000aa1c       0xf7 /opt/wonderful/toolchain/gcc-arm-none-eabi/lib/gcc/arm-none-eabi/13.2.0/../../../../arm-none-eabi/lib/libc.a(libc_misc_fini.c.o)
 .debug_info    0x0000ab13      0x101 /opt/wonderful/toolchain/gcc-arm-none-eabi/lib/gcc/arm-none-eabi/13.2.0/../../../../arm-none-eabi/lib/libc.a(libc_stdlib_getenv.c.o)
 .debug_info    0x0000ac14      0x1f1 /opt/wonderful/toolchain/gcc-arm-none-eabi/lib/gcc/arm-none-eabi/13.2.0/../../../../arm-none-eabi/lib/libc.a(libc_stdlib_getenv_r.c.o)
 .debug_info    0x0000ae05       0xe5 /opt/wonderful/toolchain/gcc-arm-none-eabi/lib/gcc/arm-none-eabi/13.2.0/../../../../arm-none-eabi/lib/libc.a(libc_string_strnlen.c.o)
 .debug_info    0x0000aeea      0x170 /opt/wonderful/toolchain/gcc-arm-none-eabi/lib/gcc/arm-none-eabi/13.2.0/../../../../arm-none-eabi/lib/libc.a(libc_time_gettzinfo.c.o)
 .debug_info    0x0000b05a      0x31a /opt/wonderful/toolchain/gcc-arm-none-eabi/lib/gcc/arm-none-eabi/13.2.0/../../../../arm-none-eabi/lib/libc.a(libc_time_gmtime_r.c.o)
 .debug_info    0x0000b374      0xf9c /opt/wonderful/toolchain/gcc-arm-none-eabi/lib/gcc/arm-none-eabi/13.2.0/../../../../arm-none-eabi/lib/libc.a(libc_tinystdio_bufio.c.o)
 .debug_info    0x0000c310      0x2db /opt/wonderful/toolchain/gcc-arm-none-eabi/lib/gcc/arm-none-eabi/13.2.0/../../../../arm-none-eabi/lib/libc.a(libc_tinystdio_dtox_engine.c.o)
 .debug_info    0x0000c5eb      0x1e6 /opt/wonderful/toolchain/gcc-arm-none-eabi/lib/gcc/arm-none-eabi/13.2.0/../../../../arm-none-eabi/lib/libc.a(libc_tinystdio_fgetc.c.o)
 .debug_info    0x0000c7d1      0x201 /opt/wonderful/toolchain/gcc-arm-none-eabi/lib/gcc/arm-none-eabi/13.2.0/../../../../arm-none-eabi/lib/libc.a(libc_tinystdio_filestrget.c.o)
 .debug_info    0x0000c9d2      0x1f4 /opt/wonderful/toolchain/gcc-arm-none-eabi/lib/gcc/arm-none-eabi/13.2.0/../../../../arm-none-eabi/lib/libc.a(libc_tinystdio_filestrput.c.o)
 .debug_info    0x0000cbc6      0x33b /opt/wonderful/toolchain/gcc-arm-none-eabi/lib/gcc/arm-none-eabi/13.2.0/../../../../arm-none-eabi/lib/libc.a(libc_tinystdio_fseeko.c.o)
 .debug_info    0x0000cf01      0x108 /opt/wonderful/toolchain/gcc-arm-none-eabi/lib/gcc/arm-none-eabi/13.2.0/../../../../arm-none-eabi/lib/libc.a(libc_tinystdio_sflags.c.o)
 .debug_info    0x0000d009      0x1d7 /opt/wonderful/toolchain/gcc-arm-none-eabi/lib/gcc/arm-none-eabi/13.2.0/../../../../arm-none-eabi/lib/libc.a(libc_tinystdio_ungetc.c.o)
 .debug_info    0x0000d1e0      0x14d /opt/wonderful/toolchain/gcc-arm-none-eabi/lib/gcc/arm-none-eabi/13.2.0/../../../../arm-none-eabi/lib/libc.a(libc_tinystdio_compare_exchange.c.o)
 .debug_info    0x0000d32d       0x6b /opt/wonderful/toolchain/gcc-arm-none-eabi/lib/gcc/arm-none-eabi/13.2.0/../../../../arm-none-eabi/lib/libc.a(libc_stdlib_environ.c.o)
 .debug_info    0x0000d398       0x31 /opt/wonderful/toolchain/gcc-arm-none-eabi/lib/gcc/arm-none-eabi/13.2.0/thumb/libgcc.a(_thumb1_case_uqi.o)
 .debug_info    0x0000d3c9       0x3e /opt/wonderful/toolchain/gcc-arm-none-eabi/lib/gcc/arm-none-eabi/13.2.0/thumb/libgcc.a(_udivsi3.o)
 .debug_info    0x0000d407       0x3e /opt/wonderful/toolchain/gcc-arm-none-eabi/lib/gcc/arm-none-eabi/13.2.0/thumb/libgcc.a(_divsi3.o)
 .debug_info    0x0000d445       0x3c /opt/wonderful/toolchain/gcc-arm-none-eabi/lib/gcc/arm-none-eabi/13.2.0/thumb/libgcc.a(_dvmd_tls.o)
 .debug_info    0x0000d481       0x3c /opt/wonderful/toolchain/gcc-arm-none-eabi/lib/gcc/arm-none-eabi/13.2.0/thumb/libgcc.a(_lshrdi3.o)
 .debug_info    0x0000d4bd       0x3c /opt/wonderful/toolchain/gcc-arm-none-eabi/lib/gcc/arm-none-eabi/13.2.0/thumb/libgcc.a(_ashrdi3.o)
 .debug_info    0x0000d4f9       0x3c /opt/wonderful/toolchain/gcc-arm-none-eabi/lib/gcc/arm-none-eabi/13.2.0/thumb/libgcc.a(_ashldi3.o)
 .debug_info    0x0000d535       0xd3 /opt/wonderful/toolchain/gcc-arm-none-eabi/lib/gcc/arm-none-eabi/13.2.0/thumb/libgcc.a(_arm_addsubdf3.o)
 .debug_info    0x0000d608       0x3f /opt/wonderful/toolchain/gcc-arm-none-eabi/lib/gcc/arm-none-eabi/13.2.0/thumb/libgcc.a(_arm_truncdfsf2.o)
 .debug_info    0x0000d647       0x31 /opt/wonderful/toolchain/gcc-arm-none-eabi/lib/gcc/arm-none-eabi/13.2.0/thumb/libgcc.a(_clzsi2.o)
 .debug_info    0x0000d678       0x31 /opt/wonderful/toolchain/gcc-arm-none-eabi/lib/gcc/arm-none-eabi/13.2.0/thumb/libgcc.a(_clzdi2.o)
 .debug_info    0x0000d6a9       0x25 /opt/wonderful/toolchain/gcc-arm-none-eabi/lib/gcc/arm-none-eabi/13.2.0/thumb/libgcc.a(_aeabi_ldivmod.o)
 .debug_info    0x0000d6ce       0x24 /opt/wonderful/toolchain/gcc-arm-none-eabi/lib/gcc/arm-none-eabi/13.2.0/thumb/libgcc.a(_aeabi_uldivmod.o)
 .debug_info    0x0000d6f2      0x420 /opt/wonderful/toolchain/gcc-arm-none-eabi/lib/gcc/arm-none-eabi/13.2.0/thumb/libgcc.a(_muldi3.o)
 .debug_info    0x0000db12      0x3a3 /opt/wonderful/toolchain/gcc-arm-none-eabi/lib/gcc/arm-none-eabi/13.2.0/thumb/libgcc.a(_udivmoddi4.o)

.debug_abbrev   0x00000000     0x54cd
 *(.debug_abbrev)
 .debug_abbrev  0x00000000       0x28 /opt/wonderful/toolchain/gcc-arm-none-eabi/lib/gcc/arm-none-eabi/13.2.0/../../../../arm-none-eabi/lib/libc.a(strcmp.S.o)
 .debug_abbrev  0x00000028       0x28 /opt/wonderful/toolchain/gcc-arm-none-eabi/lib/gcc/arm-none-eabi/13.2.0/../../../../arm-none-eabi/lib/libc.a(strlen.S.o)
 .debug_abbrev  0x00000050      0x174 /opt/wonderful/toolchain/gcc-arm-none-eabi/lib/gcc/arm-none-eabi/13.2.0/../../../../arm-none-eabi/lib/libc.a(malloc-calloc.c.o)
 .debug_abbrev  0x000001c4      0x215 /opt/wonderful/toolchain/gcc-arm-none-eabi/lib/gcc/arm-none-eabi/13.2.0/../../../../arm-none-eabi/lib/libc.a(malloc-free.c.o)
 .debug_abbrev  0x000003d9      0x214 /opt/wonderful/toolchain/gcc-arm-none-eabi/lib/gcc/arm-none-eabi/13.2.0/../../../../arm-none-eabi/lib/libc.a(malloc-malloc.c.o)
 .debug_abbrev  0x000005ed      0x1bf /opt/wonderful/toolchain/gcc-arm-none-eabi/lib/gcc/arm-none-eabi/13.2.0/../../../../arm-none-eabi/lib/libc.a(malloc-realloc.c.o)
 .debug_abbrev  0x000007ac       0x48 /opt/wonderful/toolchain/gcc-arm-none-eabi/lib/gcc/arm-none-eabi/13.2.0/../../../../arm-none-eabi/lib/libc.a(libc_errno_errno.c.o)
 .debug_abbrev  0x000007f4       0xc9 /opt/wonderful/toolchain/gcc-arm-none-eabi/lib/gcc/arm-none-eabi/13.2.0/../../../../arm-none-eabi/lib/libc.a(libc_misc_init.c.o)
 .debug_abbrev  0x000008bd       0xce /opt/wonderful/toolchain/gcc-arm-none-eabi/lib/gcc/arm-none-eabi/13.2.0/../../../../arm-none-eabi/lib/libc.a(libc_misc_lock.c.o)
 .debug_abbrev  0x0000098b       0xd4 /opt/wonderful/toolchain/gcc-arm-none-eabi/lib/gcc/arm-none-eabi/13.2.0/../../../../arm-none-eabi/lib/libc.a(libc_stdlib_pico-exit.c.o)
 .debug_abbrev  0x00000a5f       0x90 /opt/wonderful/toolchain/gcc-arm-none-eabi/lib/gcc/arm-none-eabi/13.2.0/../../../../arm-none-eabi/lib/libc.a(libc_string_memcmp.c.o)
 .debug_abbrev  0x00000aef       0x82 /opt/wonderful/toolchain/gcc-arm-none-eabi/lib/gcc/arm-none-eabi/13.2.0/../../../../arm-none-eabi/lib/libc.a(libc_string_strchr.c.o)
 .debug_abbrev  0x00000b71       0xfb /opt/wonderful/toolchain/gcc-arm-none-eabi/lib/gcc/arm-none-eabi/13.2.0/../../../../arm-none-eabi/lib/libc.a(libc_string_strdup.c.o)
 .debug_abbrev  0x00000c6c       0x7b /opt/wonderful/toolchain/gcc-arm-none-eabi/lib/gcc/arm-none-eabi/13.2.0/../../../../arm-none-eabi/lib/libc.a(libc_string_strncmp.c.o)
 .debug_abbrev  0x00000ce7       0xa1 /opt/wonderful/toolchain/gcc-arm-none-eabi/lib/gcc/arm-none-eabi/13.2.0/../../../../arm-none-eabi/lib/libc.a(libc_string_strstr.c.o)
 .debug_abbrev  0x00000d88       0xe7 /opt/wonderful/toolchain/gcc-arm-none-eabi/lib/gcc/arm-none-eabi/13.2.0/../../../../arm-none-eabi/lib/libc.a(libc_time_lcltime.c.o)
 .debug_abbrev  0x00000e6f      0x227 /opt/wonderful/toolchain/gcc-arm-none-eabi/lib/gcc/arm-none-eabi/13.2.0/../../../../arm-none-eabi/lib/libc.a(libc_time_lcltime_r.c.o)
 .debug_abbrev  0x00001096       0x5d /opt/wonderful/toolchain/gcc-arm-none-eabi/lib/gcc/arm-none-eabi/13.2.0/../../../../arm-none-eabi/lib/libc.a(libc_time_lcltime_buf.c.o)
 .debug_abbrev  0x000010f3       0x70 /opt/wonderful/toolchain/gcc-arm-none-eabi/lib/gcc/arm-none-eabi/13.2.0/../../../../arm-none-eabi/lib/libc.a(libc_time_month_lengths.c.o)
 .debug_abbrev  0x00001163       0xf5 /opt/wonderful/toolchain/gcc-arm-none-eabi/lib/gcc/arm-none-eabi/13.2.0/../../../../arm-none-eabi/lib/libc.a(libc_time_time.c.o)
 .debug_abbrev  0x00001258      0x1ac /opt/wonderful/toolchain/gcc-arm-none-eabi/lib/gcc/arm-none-eabi/13.2.0/../../../../arm-none-eabi/lib/libc.a(libc_time_tzcalc_limits.c.o)
 .debug_abbrev  0x00001404      0x1f2 /opt/wonderful/toolchain/gcc-arm-none-eabi/lib/gcc/arm-none-eabi/13.2.0/../../../../arm-none-eabi/lib/libc.a(libc_time_tzset.c.o)
 .debug_abbrev  0x000015f6       0x55 /opt/wonderful/toolchain/gcc-arm-none-eabi/lib/gcc/arm-none-eabi/13.2.0/../../../../arm-none-eabi/lib/libc.a(libc_time_tzvars.c.o)
 .debug_abbrev  0x0000164b       0xe2 /opt/wonderful/toolchain/gcc-arm-none-eabi/lib/gcc/arm-none-eabi/13.2.0/../../../../arm-none-eabi/lib/libc.a(libc_tinystdio_fclose.c.o)
 .debug_abbrev  0x0000172d       0xca /opt/wonderful/toolchain/gcc-arm-none-eabi/lib/gcc/arm-none-eabi/13.2.0/../../../../arm-none-eabi/lib/libc.a(libc_tinystdio_fflush.c.o)
 .debug_abbrev  0x000017f7       0xec /opt/wonderful/toolchain/gcc-arm-none-eabi/lib/gcc/arm-none-eabi/13.2.0/../../../../arm-none-eabi/lib/libc.a(libc_tinystdio_fileno.c.o)
 .debug_abbrev  0x000018e3      0x15d /opt/wonderful/toolchain/gcc-arm-none-eabi/lib/gcc/arm-none-eabi/13.2.0/../../../../arm-none-eabi/lib/libc.a(libc_tinystdio_fread.c.o)
 .debug_abbrev  0x00001a40      0x125 /opt/wonderful/toolchain/gcc-arm-none-eabi/lib/gcc/arm-none-eabi/13.2.0/../../../../arm-none-eabi/lib/libc.a(libc_tinystdio_fseek.c.o)
 .debug_abbrev  0x00001b65      0x101 /opt/wonderful/toolchain/gcc-arm-none-eabi/lib/gcc/arm-none-eabi/13.2.0/../../../../arm-none-eabi/lib/libc.a(libc_tinystdio_ftell.c.o)
 .debug_abbrev  0x00001c66      0x147 /opt/wonderful/toolchain/gcc-arm-none-eabi/lib/gcc/arm-none-eabi/13.2.0/../../../../arm-none-eabi/lib/libc.a(libc_tinystdio_printf.c.o)
 .debug_abbrev  0x00001dad       0xfb /opt/wonderful/toolchain/gcc-arm-none-eabi/lib/gcc/arm-none-eabi/13.2.0/../../../../arm-none-eabi/lib/libc.a(libc_tinystdio_puts.c.o)
 .debug_abbrev  0x00001ea8       0xe1 /opt/wonderful/toolchain/gcc-arm-none-eabi/lib/gcc/arm-none-eabi/13.2.0/../../../../arm-none-eabi/lib/libc.a(libc_tinystdio_rewind.c.o)
 .debug_abbrev  0x00001f89      0x107 /opt/wonderful/toolchain/gcc-arm-none-eabi/lib/gcc/arm-none-eabi/13.2.0/../../../../arm-none-eabi/lib/libc.a(libc_tinystdio_setvbuf.c.o)
 .debug_abbrev  0x00002090      0x167 /opt/wonderful/toolchain/gcc-arm-none-eabi/lib/gcc/arm-none-eabi/13.2.0/../../../../arm-none-eabi/lib/libc.a(libc_tinystdio_snprintf.c.o)
 .debug_abbrev  0x000021f7      0x165 /opt/wonderful/toolchain/gcc-arm-none-eabi/lib/gcc/arm-none-eabi/13.2.0/../../../../arm-none-eabi/lib/libc.a(libc_tinystdio_sprintf.c.o)
 .debug_abbrev  0x0000235c      0x17c /opt/wonderful/toolchain/gcc-arm-none-eabi/lib/gcc/arm-none-eabi/13.2.0/../../../../arm-none-eabi/lib/libc.a(libc_tinystdio_sscanf.c.o)
 .debug_abbrev  0x000024d8      0x130 /opt/wonderful/toolchain/gcc-arm-none-eabi/lib/gcc/arm-none-eabi/13.2.0/../../../../arm-none-eabi/lib/libc.a(libc_tinystdio_strtoul.c.o)
 .debug_abbrev  0x00002608      0x2e0 /opt/wonderful/toolchain/gcc-arm-none-eabi/lib/gcc/arm-none-eabi/13.2.0/../../../../arm-none-eabi/lib/libc.a(libc_tinystdio_vfprintf.c.o)
 .debug_abbrev  0x000028e8      0x488 /opt/wonderful/toolchain/gcc-arm-none-eabi/lib/gcc/arm-none-eabi/13.2.0/../../../../arm-none-eabi/lib/libc.a(libc_tinystdio_vfscanf.c.o)
 .debug_abbrev  0x00002d70      0x39c /opt/wonderful/toolchain/gcc-arm-none-eabi/lib/gcc/arm-none-eabi/13.2.0/../../../../arm-none-eabi/lib/libc.a(libc_tinystdio_dtoa_ryu.c.o)
 .debug_abbrev  0x0000310c      0x16f /opt/wonderful/toolchain/gcc-arm-none-eabi/lib/gcc/arm-none-eabi/13.2.0/../../../../arm-none-eabi/lib/libc.a(libc_tinystdio_ryu_table.c.o)
 .debug_abbrev  0x0000327b      0x24a /opt/wonderful/toolchain/gcc-arm-none-eabi/lib/gcc/arm-none-eabi/13.2.0/../../../../arm-none-eabi/lib/libc.a(libc_tinystdio_atod_ryu.c.o)
 .debug_abbrev  0x000034c5      0x1f0 /opt/wonderful/toolchain/gcc-arm-none-eabi/lib/gcc/arm-none-eabi/13.2.0/../../../../arm-none-eabi/lib/libc.a(libc_tinystdio_atof_ryu.c.o)
 .debug_abbrev  0x000036b5       0xc6 /opt/wonderful/toolchain/gcc-arm-none-eabi/lib/gcc/arm-none-eabi/13.2.0/../../../../arm-none-eabi/lib/libc.a(libc_tinystdio_ryu_log2pow5.c.o)
 .debug_abbrev  0x0000377b       0x8e /opt/wonderful/toolchain/gcc-arm-none-eabi/lib/gcc/arm-none-eabi/13.2.0/../../../../arm-none-eabi/lib/libc.a(libc_tinystdio_ryu_log10.c.o)
 .debug_abbrev  0x00003809       0x6f /opt/wonderful/toolchain/gcc-arm-none-eabi/lib/gcc/arm-none-eabi/13.2.0/../../../../arm-none-eabi/lib/libc.a(libc_tinystdio_ryu_pow5bits.c.o)
 .debug_abbrev  0x00003878       0xe2 /opt/wonderful/toolchain/gcc-arm-none-eabi/lib/gcc/arm-none-eabi/13.2.0/../../../../arm-none-eabi/lib/libc.a(libc_tinystdio_ryu_umul128.c.o)
 .debug_abbrev  0x0000395a      0x176 /opt/wonderful/toolchain/gcc-arm-none-eabi/lib/gcc/arm-none-eabi/13.2.0/../../../../arm-none-eabi/lib/libc.a(libc_tinystdio_ryu_divpow2.c.o)
 .debug_abbrev  0x00003ad0       0xeb /opt/wonderful/toolchain/gcc-arm-none-eabi/lib/gcc/arm-none-eabi/13.2.0/../../../../arm-none-eabi/lib/libc.a(libc_tinystdio_exchange.c.o)
 .debug_abbrev  0x00003bbb      0x14c /opt/wonderful/toolchain/gcc-arm-none-eabi/lib/gcc/arm-none-eabi/13.2.0/../../../../arm-none-eabi/lib/libc.a(libc_tinystdio_fopen.c.o)
 .debug_abbrev  0x00003d07      0x1c8 /opt/wonderful/toolchain/gcc-arm-none-eabi/lib/gcc/arm-none-eabi/13.2.0/../../../../arm-none-eabi/lib/libc.a(libc_tinystdio_fdopen.c.o)
 .debug_abbrev  0x00003ecf       0xac /opt/wonderful/toolchain/gcc-arm-none-eabi/lib/gcc/arm-none-eabi/13.2.0/../../../../arm-none-eabi/lib/libc.a(memmove.c.o)
 .debug_abbrev  0x00003f7b       0xc9 /opt/wonderful/toolchain/gcc-arm-none-eabi/lib/gcc/arm-none-eabi/13.2.0/../../../../arm-none-eabi/lib/libc.a(libc_misc_fini.c.o)
 .debug_abbrev  0x00004044       0xab /opt/wonderful/toolchain/gcc-arm-none-eabi/lib/gcc/arm-none-eabi/13.2.0/../../../../arm-none-eabi/lib/libc.a(libc_stdlib_getenv.c.o)
 .debug_abbrev  0x000040ef      0x10e /opt/wonderful/toolchain/gcc-arm-none-eabi/lib/gcc/arm-none-eabi/13.2.0/../../../../arm-none-eabi/lib/libc.a(libc_stdlib_getenv_r.c.o)
 .debug_abbrev  0x000041fd       0x8f /opt/wonderful/toolchain/gcc-arm-none-eabi/lib/gcc/arm-none-eabi/13.2.0/../../../../arm-none-eabi/lib/libc.a(libc_string_strnlen.c.o)
 .debug_abbrev  0x0000428c       0xb7 /opt/wonderful/toolchain/gcc-arm-none-eabi/lib/gcc/arm-none-eabi/13.2.0/../../../../arm-none-eabi/lib/libc.a(libc_time_gettzinfo.c.o)
 .debug_abbrev  0x00004343      0x140 /opt/wonderful/toolchain/gcc-arm-none-eabi/lib/gcc/arm-none-eabi/13.2.0/../../../../arm-none-eabi/lib/libc.a(libc_time_gmtime_r.c.o)
 .debug_abbrev  0x00004483      0x399 /opt/wonderful/toolchain/gcc-arm-none-eabi/lib/gcc/arm-none-eabi/13.2.0/../../../../arm-none-eabi/lib/libc.a(libc_tinystdio_bufio.c.o)
 .debug_abbrev  0x0000481c      0x1a8 /opt/wonderful/toolchain/gcc-arm-none-eabi/lib/gcc/arm-none-eabi/13.2.0/../../../../arm-none-eabi/lib/libc.a(libc_tinystdio_dtox_engine.c.o)
 .debug_abbrev  0x000049c4      0x114 /opt/wonderful/toolchain/gcc-arm-none-eabi/lib/gcc/arm-none-eabi/13.2.0/../../../../arm-none-eabi/lib/libc.a(libc_tinystdio_fgetc.c.o)
 .debug_abbrev  0x00004ad8       0xe2 /opt/wonderful/toolchain/gcc-arm-none-eabi/lib/gcc/arm-none-eabi/13.2.0/../../../../arm-none-eabi/lib/libc.a(libc_tinystdio_filestrget.c.o)
 .debug_abbrev  0x00004bba       0xdc /opt/wonderful/toolchain/gcc-arm-none-eabi/lib/gcc/arm-none-eabi/13.2.0/../../../../arm-none-eabi/lib/libc.a(libc_tinystdio_filestrput.c.o)
 .debug_abbrev  0x00004c96      0x125 /opt/wonderful/toolchain/gcc-arm-none-eabi/lib/gcc/arm-none-eabi/13.2.0/../../../../arm-none-eabi/lib/libc.a(libc_tinystdio_fseeko.c.o)
 .debug_abbrev  0x00004dbb       0xa5 /opt/wonderful/toolchain/gcc-arm-none-eabi/lib/gcc/arm-none-eabi/13.2.0/../../../../arm-none-eabi/lib/libc.a(libc_tinystdio_sflags.c.o)
 .debug_abbrev  0x00004e60       0xf7 /opt/wonderful/toolchain/gcc-arm-none-eabi/lib/gcc/arm-none-eabi/13.2.0/../../../../arm-none-eabi/lib/libc.a(libc_tinystdio_ungetc.c.o)
 .debug_abbrev  0x00004f57       0xcb /opt/wonderful/toolchain/gcc-arm-none-eabi/lib/gcc/arm-none-eabi/13.2.0/../../../../arm-none-eabi/lib/libc.a(libc_tinystdio_compare_exchange.c.o)
 .debug_abbrev  0x00005022       0x5b /opt/wonderful/toolchain/gcc-arm-none-eabi/lib/gcc/arm-none-eabi/13.2.0/../../../../arm-none-eabi/lib/libc.a(libc_stdlib_environ.c.o)
 .debug_abbrev  0x0000507d       0x28 /opt/wonderful/toolchain/gcc-arm-none-eabi/lib/gcc/arm-none-eabi/13.2.0/thumb/libgcc.a(_thumb1_case_uqi.o)
 .debug_abbrev  0x000050a5       0x28 /opt/wonderful/toolchain/gcc-arm-none-eabi/lib/gcc/arm-none-eabi/13.2.0/thumb/libgcc.a(_udivsi3.o)
 .debug_abbrev  0x000050cd       0x28 /opt/wonderful/toolchain/gcc-arm-none-eabi/lib/gcc/arm-none-eabi/13.2.0/thumb/libgcc.a(_divsi3.o)
 .debug_abbrev  0x000050f5       0x26 /opt/wonderful/toolchain/gcc-arm-none-eabi/lib/gcc/arm-none-eabi/13.2.0/thumb/libgcc.a(_dvmd_tls.o)
 .debug_abbrev  0x0000511b       0x28 /opt/wonderful/toolchain/gcc-arm-none-eabi/lib/gcc/arm-none-eabi/13.2.0/thumb/libgcc.a(_lshrdi3.o)
 .debug_abbrev  0x00005143       0x28 /opt/wonderful/toolchain/gcc-arm-none-eabi/lib/gcc/arm-none-eabi/13.2.0/thumb/libgcc.a(_ashrdi3.o)
 .debug_abbrev  0x0000516b       0x28 /opt/wonderful/toolchain/gcc-arm-none-eabi/lib/gcc/arm-none-eabi/13.2.0/thumb/libgcc.a(_ashldi3.o)
 .debug_abbrev  0x00005193       0x28 /opt/wonderful/toolchain/gcc-arm-none-eabi/lib/gcc/arm-none-eabi/13.2.0/thumb/libgcc.a(_arm_addsubdf3.o)
 .debug_abbrev  0x000051bb       0x28 /opt/wonderful/toolchain/gcc-arm-none-eabi/lib/gcc/arm-none-eabi/13.2.0/thumb/libgcc.a(_arm_truncdfsf2.o)
 .debug_abbrev  0x000051e3       0x28 /opt/wonderful/toolchain/gcc-arm-none-eabi/lib/gcc/arm-none-eabi/13.2.0/thumb/libgcc.a(_clzsi2.o)
 .debug_abbrev  0x0000520b       0x28 /opt/wonderful/toolchain/gcc-arm-none-eabi/lib/gcc/arm-none-eabi/13.2.0/thumb/libgcc.a(_clzdi2.o)
 .debug_abbrev  0x00005233       0x14 /opt/wonderful/toolchain/gcc-arm-none-eabi/lib/gcc/arm-none-eabi/13.2.0/thumb/libgcc.a(_aeabi_ldivmod.o)
 .debug_abbrev  0x00005247       0x14 /opt/wonderful/toolchain/gcc-arm-none-eabi/lib/gcc/arm-none-eabi/13.2.0/thumb/libgcc.a(_aeabi_uldivmod.o)
 .debug_abbrev  0x0000525b      0x152 /opt/wonderful/toolchain/gcc-arm-none-eabi/lib/gcc/arm-none-eabi/13.2.0/thumb/libgcc.a(_muldi3.o)
 .debug_abbrev  0x000053ad      0x120 /opt/wonderful/toolchain/gcc-arm-none-eabi/lib/gcc/arm-none-eabi/13.2.0/thumb/libgcc.a(_udivmoddi4.o)

.debug_line     0x00000000     0xad8b
 *(.debug_line)
 .debug_line    0x00000000       0x52 /opt/wonderful/toolchain/gcc-arm-none-eabi/lib/gcc/arm-none-eabi/13.2.0/../../../../arm-none-eabi/lib/libc.a(strcmp.S.o)
 .debug_line    0x00000052       0x4f /opt/wonderful/toolchain/gcc-arm-none-eabi/lib/gcc/arm-none-eabi/13.2.0/../../../../arm-none-eabi/lib/libc.a(strlen.S.o)
 .debug_line    0x000000a1      0x20e /opt/wonderful/toolchain/gcc-arm-none-eabi/lib/gcc/arm-none-eabi/13.2.0/../../../../arm-none-eabi/lib/libc.a(malloc-calloc.c.o)
 .debug_line    0x000002af      0x41c /opt/wonderful/toolchain/gcc-arm-none-eabi/lib/gcc/arm-none-eabi/13.2.0/../../../../arm-none-eabi/lib/libc.a(malloc-free.c.o)
 .debug_line    0x000006cb      0x75f /opt/wonderful/toolchain/gcc-arm-none-eabi/lib/gcc/arm-none-eabi/13.2.0/../../../../arm-none-eabi/lib/libc.a(malloc-malloc.c.o)
 .debug_line    0x00000e2a      0x6f3 /opt/wonderful/toolchain/gcc-arm-none-eabi/lib/gcc/arm-none-eabi/13.2.0/../../../../arm-none-eabi/lib/libc.a(malloc-realloc.c.o)
 .debug_line    0x0000151d       0x7b /opt/wonderful/toolchain/gcc-arm-none-eabi/lib/gcc/arm-none-eabi/13.2.0/../../../../arm-none-eabi/lib/libc.a(libc_errno_errno.c.o)
 .debug_line    0x00001598      0x12b /opt/wonderful/toolchain/gcc-arm-none-eabi/lib/gcc/arm-none-eabi/13.2.0/../../../../arm-none-eabi/lib/libc.a(libc_misc_init.c.o)
 .debug_line    0x000016c3      0x10f /opt/wonderful/toolchain/gcc-arm-none-eabi/lib/gcc/arm-none-eabi/13.2.0/../../../../arm-none-eabi/lib/libc.a(libc_misc_lock.c.o)
 .debug_line    0x000017d2       0xaa /opt/wonderful/toolchain/gcc-arm-none-eabi/lib/gcc/arm-none-eabi/13.2.0/../../../../arm-none-eabi/lib/libc.a(libc_stdlib_pico-exit.c.o)
 .debug_line    0x0000187c       0xf2 /opt/wonderful/toolchain/gcc-arm-none-eabi/lib/gcc/arm-none-eabi/13.2.0/../../../../arm-none-eabi/lib/libc.a(libc_string_memcmp.c.o)
 .debug_line    0x0000196e       0x91 /opt/wonderful/toolchain/gcc-arm-none-eabi/lib/gcc/arm-none-eabi/13.2.0/../../../../arm-none-eabi/lib/libc.a(libc_string_strchr.c.o)
 .debug_line    0x000019ff      0x12f /opt/wonderful/toolchain/gcc-arm-none-eabi/lib/gcc/arm-none-eabi/13.2.0/../../../../arm-none-eabi/lib/libc.a(libc_string_strdup.c.o)
 .debug_line    0x00001b2e      0x103 /opt/wonderful/toolchain/gcc-arm-none-eabi/lib/gcc/arm-none-eabi/13.2.0/../../../../arm-none-eabi/lib/libc.a(libc_string_strncmp.c.o)
 .debug_line    0x00001c31      0x12b /opt/wonderful/toolchain/gcc-arm-none-eabi/lib/gcc/arm-none-eabi/13.2.0/../../../../arm-none-eabi/lib/libc.a(libc_string_strstr.c.o)
 .debug_line    0x00001d5c      0x10c /opt/wonderful/toolchain/gcc-arm-none-eabi/lib/gcc/arm-none-eabi/13.2.0/../../../../arm-none-eabi/lib/libc.a(libc_time_lcltime.c.o)
 .debug_line    0x00001e68      0x3f7 /opt/wonderful/toolchain/gcc-arm-none-eabi/lib/gcc/arm-none-eabi/13.2.0/../../../../arm-none-eabi/lib/libc.a(libc_time_lcltime_r.c.o)
 .debug_line    0x0000225f       0x7b /opt/wonderful/toolchain/gcc-arm-none-eabi/lib/gcc/arm-none-eabi/13.2.0/../../../../arm-none-eabi/lib/libc.a(libc_time_lcltime_buf.c.o)
 .debug_line    0x000022da       0xce /opt/wonderful/toolchain/gcc-arm-none-eabi/lib/gcc/arm-none-eabi/13.2.0/../../../../arm-none-eabi/lib/libc.a(libc_time_month_lengths.c.o)
 .debug_line    0x000023a8      0x125 /opt/wonderful/toolchain/gcc-arm-none-eabi/lib/gcc/arm-none-eabi/13.2.0/../../../../arm-none-eabi/lib/libc.a(libc_time_time.c.o)
 .debug_line    0x000024cd      0x305 /opt/wonderful/toolchain/gcc-arm-none-eabi/lib/gcc/arm-none-eabi/13.2.0/../../../../arm-none-eabi/lib/libc.a(libc_time_tzcalc_limits.c.o)
 .debug_line    0x000027d2      0x621 /opt/wonderful/toolchain/gcc-arm-none-eabi/lib/gcc/arm-none-eabi/13.2.0/../../../../arm-none-eabi/lib/libc.a(libc_time_tzset.c.o)
 .debug_line    0x00002df3       0x49 /opt/wonderful/toolchain/gcc-arm-none-eabi/lib/gcc/arm-none-eabi/13.2.0/../../../../arm-none-eabi/lib/libc.a(libc_time_tzvars.c.o)
 .debug_line    0x00002e3c      0x10c /opt/wonderful/toolchain/gcc-arm-none-eabi/lib/gcc/arm-none-eabi/13.2.0/../../../../arm-none-eabi/lib/libc.a(libc_tinystdio_fclose.c.o)
 .debug_line    0x00002f48       0xf9 /opt/wonderful/toolchain/gcc-arm-none-eabi/lib/gcc/arm-none-eabi/13.2.0/../../../../arm-none-eabi/lib/libc.a(libc_tinystdio_fflush.c.o)
 .debug_line    0x00003041      0x183 /opt/wonderful/toolchain/gcc-arm-none-eabi/lib/gcc/arm-none-eabi/13.2.0/../../../../arm-none-eabi/lib/libc.a(libc_tinystdio_fileno.c.o)
 .debug_line    0x000031c4      0x252 /opt/wonderful/toolchain/gcc-arm-none-eabi/lib/gcc/arm-none-eabi/13.2.0/../../../../arm-none-eabi/lib/libc.a(libc_tinystdio_fread.c.o)
 .debug_line    0x00003416      0x1c4 /opt/wonderful/toolchain/gcc-arm-none-eabi/lib/gcc/arm-none-eabi/13.2.0/../../../../arm-none-eabi/lib/libc.a(libc_tinystdio_fseek.c.o)
 .debug_line    0x000035da      0x184 /opt/wonderful/toolchain/gcc-arm-none-eabi/lib/gcc/arm-none-eabi/13.2.0/../../../../arm-none-eabi/lib/libc.a(libc_tinystdio_ftell.c.o)
 .debug_line    0x0000375e      0x16b /opt/wonderful/toolchain/gcc-arm-none-eabi/lib/gcc/arm-none-eabi/13.2.0/../../../../arm-none-eabi/lib/libc.a(libc_tinystdio_printf.c.o)
 .debug_line    0x000038c9      0x13a /opt/wonderful/toolchain/gcc-arm-none-eabi/lib/gcc/arm-none-eabi/13.2.0/../../../../arm-none-eabi/lib/libc.a(libc_tinystdio_puts.c.o)
 .debug_line    0x00003a03       0xf4 /opt/wonderful/toolchain/gcc-arm-none-eabi/lib/gcc/arm-none-eabi/13.2.0/../../../../arm-none-eabi/lib/libc.a(libc_tinystdio_rewind.c.o)
 .debug_line    0x00003af7      0x174 /opt/wonderful/toolchain/gcc-arm-none-eabi/lib/gcc/arm-none-eabi/13.2.0/../../../../arm-none-eabi/lib/libc.a(libc_tinystdio_setvbuf.c.o)
 .debug_line    0x00003c6b      0x1d6 /opt/wonderful/toolchain/gcc-arm-none-eabi/lib/gcc/arm-none-eabi/13.2.0/../../../../arm-none-eabi/lib/libc.a(libc_tinystdio_snprintf.c.o)
 .debug_line    0x00003e41      0x1b1 /opt/wonderful/toolchain/gcc-arm-none-eabi/lib/gcc/arm-none-eabi/13.2.0/../../../../arm-none-eabi/lib/libc.a(libc_tinystdio_sprintf.c.o)
 .debug_line    0x00003ff2      0x197 /opt/wonderful/toolchain/gcc-arm-none-eabi/lib/gcc/arm-none-eabi/13.2.0/../../../../arm-none-eabi/lib/libc.a(libc_tinystdio_sscanf.c.o)
 .debug_line    0x00004189      0x273 /opt/wonderful/toolchain/gcc-arm-none-eabi/lib/gcc/arm-none-eabi/13.2.0/../../../../arm-none-eabi/lib/libc.a(libc_tinystdio_strtoul.c.o)
 .debug_line    0x000043fc     0x1001 /opt/wonderful/toolchain/gcc-arm-none-eabi/lib/gcc/arm-none-eabi/13.2.0/../../../../arm-none-eabi/lib/libc.a(libc_tinystdio_vfprintf.c.o)
 .debug_line    0x000053fd     0x1039 /opt/wonderful/toolchain/gcc-arm-none-eabi/lib/gcc/arm-none-eabi/13.2.0/../../../../arm-none-eabi/lib/libc.a(libc_tinystdio_vfscanf.c.o)
 .debug_line    0x00006436      0x91c /opt/wonderful/toolchain/gcc-arm-none-eabi/lib/gcc/arm-none-eabi/13.2.0/../../../../arm-none-eabi/lib/libc.a(libc_tinystdio_dtoa_ryu.c.o)
 .debug_line    0x00006d52      0x371 /opt/wonderful/toolchain/gcc-arm-none-eabi/lib/gcc/arm-none-eabi/13.2.0/../../../../arm-none-eabi/lib/libc.a(libc_tinystdio_ryu_table.c.o)
 .debug_line    0x000070c3      0x3d2 /opt/wonderful/toolchain/gcc-arm-none-eabi/lib/gcc/arm-none-eabi/13.2.0/../../../../arm-none-eabi/lib/libc.a(libc_tinystdio_atod_ryu.c.o)
 .debug_line    0x00007495      0x3b6 /opt/wonderful/toolchain/gcc-arm-none-eabi/lib/gcc/arm-none-eabi/13.2.0/../../../../arm-none-eabi/lib/libc.a(libc_tinystdio_atof_ryu.c.o)
 .debug_line    0x0000784b      0x12c /opt/wonderful/toolchain/gcc-arm-none-eabi/lib/gcc/arm-none-eabi/13.2.0/../../../../arm-none-eabi/lib/libc.a(libc_tinystdio_ryu_log2pow5.c.o)
 .debug_line    0x00007977      0x118 /opt/wonderful/toolchain/gcc-arm-none-eabi/lib/gcc/arm-none-eabi/13.2.0/../../../../arm-none-eabi/lib/libc.a(libc_tinystdio_ryu_log10.c.o)
 .debug_line    0x00007a8f       0xf4 /opt/wonderful/toolchain/gcc-arm-none-eabi/lib/gcc/arm-none-eabi/13.2.0/../../../../arm-none-eabi/lib/libc.a(libc_tinystdio_ryu_pow5bits.c.o)
 .debug_line    0x00007b83      0x1a1 /opt/wonderful/toolchain/gcc-arm-none-eabi/lib/gcc/arm-none-eabi/13.2.0/../../../../arm-none-eabi/lib/libc.a(libc_tinystdio_ryu_umul128.c.o)
 .debug_line    0x00007d24      0x1e4 /opt/wonderful/toolchain/gcc-arm-none-eabi/lib/gcc/arm-none-eabi/13.2.0/../../../../arm-none-eabi/lib/libc.a(libc_tinystdio_ryu_divpow2.c.o)
 .debug_line    0x00007f08      0x128 /opt/wonderful/toolchain/gcc-arm-none-eabi/lib/gcc/arm-none-eabi/13.2.0/../../../../arm-none-eabi/lib/libc.a(libc_tinystdio_exchange.c.o)
 .debug_line    0x00008030      0x13c /opt/wonderful/toolchain/gcc-arm-none-eabi/lib/gcc/arm-none-eabi/13.2.0/../../../../arm-none-eabi/lib/libc.a(libc_tinystdio_fopen.c.o)
 .debug_line    0x0000816c      0x23d /opt/wonderful/toolchain/gcc-arm-none-eabi/lib/gcc/arm-none-eabi/13.2.0/../../../../arm-none-eabi/lib/libc.a(libc_tinystdio_fdopen.c.o)
 .debug_line    0x000083a9      0x149 /opt/wonderful/toolchain/gcc-arm-none-eabi/lib/gcc/arm-none-eabi/13.2.0/../../../../arm-none-eabi/lib/libc.a(memmove.c.o)
 .debug_line    0x000084f2       0xf9 /opt/wonderful/toolchain/gcc-arm-none-eabi/lib/gcc/arm-none-eabi/13.2.0/../../../../arm-none-eabi/lib/libc.a(libc_misc_fini.c.o)
 .debug_line    0x000085eb       0x99 /opt/wonderful/toolchain/gcc-arm-none-eabi/lib/gcc/arm-none-eabi/13.2.0/../../../../arm-none-eabi/lib/libc.a(libc_stdlib_getenv.c.o)
 .debug_line    0x00008684      0x1df /opt/wonderful/toolchain/gcc-arm-none-eabi/lib/gcc/arm-none-eabi/13.2.0/../../../../arm-none-eabi/lib/libc.a(libc_stdlib_getenv_r.c.o)
 .debug_line    0x00008863       0xe0 /opt/wonderful/toolchain/gcc-arm-none-eabi/lib/gcc/arm-none-eabi/13.2.0/../../../../arm-none-eabi/lib/libc.a(libc_string_strnlen.c.o)
 .debug_line    0x00008943       0xed /opt/wonderful/toolchain/gcc-arm-none-eabi/lib/gcc/arm-none-eabi/13.2.0/../../../../arm-none-eabi/lib/libc.a(libc_time_gettzinfo.c.o)
 .debug_line    0x00008a30      0x2d1 /opt/wonderful/toolchain/gcc-arm-none-eabi/lib/gcc/arm-none-eabi/13.2.0/../../../../arm-none-eabi/lib/libc.a(libc_time_gmtime_r.c.o)
 .debug_line    0x00008d01      0xb63 /opt/wonderful/toolchain/gcc-arm-none-eabi/lib/gcc/arm-none-eabi/13.2.0/../../../../arm-none-eabi/lib/libc.a(libc_tinystdio_bufio.c.o)
 .debug_line    0x00009864      0x2cf /opt/wonderful/toolchain/gcc-arm-none-eabi/lib/gcc/arm-none-eabi/13.2.0/../../../../arm-none-eabi/lib/libc.a(libc_tinystdio_dtox_engine.c.o)
 .debug_line    0x00009b33      0x15a /opt/wonderful/toolchain/gcc-arm-none-eabi/lib/gcc/arm-none-eabi/13.2.0/../../../../arm-none-eabi/lib/libc.a(libc_tinystdio_fgetc.c.o)
 .debug_line    0x00009c8d      0x17b /opt/wonderful/toolchain/gcc-arm-none-eabi/lib/gcc/arm-none-eabi/13.2.0/../../../../arm-none-eabi/lib/libc.a(libc_tinystdio_filestrget.c.o)
 .debug_line    0x00009e08      0x16e /opt/wonderful/toolchain/gcc-arm-none-eabi/lib/gcc/arm-none-eabi/13.2.0/../../../../arm-none-eabi/lib/libc.a(libc_tinystdio_filestrput.c.o)
 .debug_line    0x00009f76      0x1d2 /opt/wonderful/toolchain/gcc-arm-none-eabi/lib/gcc/arm-none-eabi/13.2.0/../../../../arm-none-eabi/lib/libc.a(libc_tinystdio_fseeko.c.o)
 .debug_line    0x0000a148      0x10d /opt/wonderful/toolchain/gcc-arm-none-eabi/lib/gcc/arm-none-eabi/13.2.0/../../../../arm-none-eabi/lib/libc.a(libc_tinystdio_sflags.c.o)
 .debug_line    0x0000a255      0x135 /opt/wonderful/toolchain/gcc-arm-none-eabi/lib/gcc/arm-none-eabi/13.2.0/../../../../arm-none-eabi/lib/libc.a(libc_tinystdio_ungetc.c.o)
 .debug_line    0x0000a38a      0x145 /opt/wonderful/toolchain/gcc-arm-none-eabi/lib/gcc/arm-none-eabi/13.2.0/../../../../arm-none-eabi/lib/libc.a(libc_tinystdio_compare_exchange.c.o)
 .debug_line    0x0000a4cf       0x4c /opt/wonderful/toolchain/gcc-arm-none-eabi/lib/gcc/arm-none-eabi/13.2.0/../../../../arm-none-eabi/lib/libc.a(libc_stdlib_environ.c.o)
 .debug_line    0x0000a51b       0x52 /opt/wonderful/toolchain/gcc-arm-none-eabi/lib/gcc/arm-none-eabi/13.2.0/thumb/libgcc.a(_thumb1_case_uqi.o)
 .debug_line    0x0000a56d       0x67 /opt/wonderful/toolchain/gcc-arm-none-eabi/lib/gcc/arm-none-eabi/13.2.0/thumb/libgcc.a(_udivsi3.o)
 .debug_line    0x0000a5d4       0x73 /opt/wonderful/toolchain/gcc-arm-none-eabi/lib/gcc/arm-none-eabi/13.2.0/thumb/libgcc.a(_divsi3.o)
 .debug_line    0x0000a647       0x4a /opt/wonderful/toolchain/gcc-arm-none-eabi/lib/gcc/arm-none-eabi/13.2.0/thumb/libgcc.a(_dvmd_tls.o)
 .debug_line    0x0000a691       0x55 /opt/wonderful/toolchain/gcc-arm-none-eabi/lib/gcc/arm-none-eabi/13.2.0/thumb/libgcc.a(_lshrdi3.o)
 .debug_line    0x0000a6e6       0x56 /opt/wonderful/toolchain/gcc-arm-none-eabi/lib/gcc/arm-none-eabi/13.2.0/thumb/libgcc.a(_ashrdi3.o)
 .debug_line    0x0000a73c       0x55 /opt/wonderful/toolchain/gcc-arm-none-eabi/lib/gcc/arm-none-eabi/13.2.0/thumb/libgcc.a(_ashldi3.o)
 .debug_line    0x0000a791      0x158 /opt/wonderful/toolchain/gcc-arm-none-eabi/lib/gcc/arm-none-eabi/13.2.0/thumb/libgcc.a(_arm_addsubdf3.o)
 .debug_line    0x0000a8e9       0x71 /opt/wonderful/toolchain/gcc-arm-none-eabi/lib/gcc/arm-none-eabi/13.2.0/thumb/libgcc.a(_arm_truncdfsf2.o)
 .debug_line    0x0000a95a       0x57 /opt/wonderful/toolchain/gcc-arm-none-eabi/lib/gcc/arm-none-eabi/13.2.0/thumb/libgcc.a(_clzsi2.o)
 .debug_line    0x0000a9b1       0x54 /opt/wonderful/toolchain/gcc-arm-none-eabi/lib/gcc/arm-none-eabi/13.2.0/thumb/libgcc.a(_clzdi2.o)
 .debug_line    0x0000aa05       0x6c /opt/wonderful/toolchain/gcc-arm-none-eabi/lib/gcc/arm-none-eabi/13.2.0/thumb/libgcc.a(_aeabi_ldivmod.o)
 .debug_line    0x0000aa71       0x4e /opt/wonderful/toolchain/gcc-arm-none-eabi/lib/gcc/arm-none-eabi/13.2.0/thumb/libgcc.a(_aeabi_uldivmod.o)
 .debug_line    0x0000aabf      0x115 /opt/wonderful/toolchain/gcc-arm-none-eabi/lib/gcc/arm-none-eabi/13.2.0/thumb/libgcc.a(_muldi3.o)
 .debug_line    0x0000abd4      0x1b7 /opt/wonderful/toolchain/gcc-arm-none-eabi/lib/gcc/arm-none-eabi/13.2.0/thumb/libgcc.a(_udivmoddi4.o)

.debug_frame    0x00000000     0x1008
 *(.debug_frame)
 .debug_frame   0x00000000       0x20 /opt/wonderful/toolchain/gcc-arm-none-eabi/lib/gcc/arm-none-eabi/13.2.0/../../../../arm-none-eabi/lib/libc.a(strcmp.S.o)
 .debug_frame   0x00000020       0x2c /opt/wonderful/toolchain/gcc-arm-none-eabi/lib/gcc/arm-none-eabi/13.2.0/../../../../arm-none-eabi/lib/libc.a(malloc-calloc.c.o)
 .debug_frame   0x0000004c       0x54 /opt/wonderful/toolchain/gcc-arm-none-eabi/lib/gcc/arm-none-eabi/13.2.0/../../../../arm-none-eabi/lib/libc.a(malloc-free.c.o)
 .debug_frame   0x000000a0       0x30 /opt/wonderful/toolchain/gcc-arm-none-eabi/lib/gcc/arm-none-eabi/13.2.0/../../../../arm-none-eabi/lib/libc.a(malloc-malloc.c.o)
 .debug_frame   0x000000d0       0x30 /opt/wonderful/toolchain/gcc-arm-none-eabi/lib/gcc/arm-none-eabi/13.2.0/../../../../arm-none-eabi/lib/libc.a(malloc-realloc.c.o)
 .debug_frame   0x00000100       0x2c /opt/wonderful/toolchain/gcc-arm-none-eabi/lib/gcc/arm-none-eabi/13.2.0/../../../../arm-none-eabi/lib/libc.a(libc_misc_init.c.o)
 .debug_frame   0x0000012c       0x90 /opt/wonderful/toolchain/gcc-arm-none-eabi/lib/gcc/arm-none-eabi/13.2.0/../../../../arm-none-eabi/lib/libc.a(libc_misc_lock.c.o)
 .debug_frame   0x000001bc       0x28 /opt/wonderful/toolchain/gcc-arm-none-eabi/lib/gcc/arm-none-eabi/13.2.0/../../../../arm-none-eabi/lib/libc.a(libc_stdlib_pico-exit.c.o)
 .debug_frame   0x000001e4       0x2c /opt/wonderful/toolchain/gcc-arm-none-eabi/lib/gcc/arm-none-eabi/13.2.0/../../../../arm-none-eabi/lib/libc.a(libc_string_memcmp.c.o)
 .debug_frame   0x00000210       0x20 /opt/wonderful/toolchain/gcc-arm-none-eabi/lib/gcc/arm-none-eabi/13.2.0/../../../../arm-none-eabi/lib/libc.a(libc_string_strchr.c.o)
 .debug_frame   0x00000230       0x2c /opt/wonderful/toolchain/gcc-arm-none-eabi/lib/gcc/arm-none-eabi/13.2.0/../../../../arm-none-eabi/lib/libc.a(libc_string_strdup.c.o)
 .debug_frame   0x0000025c       0x2c /opt/wonderful/toolchain/gcc-arm-none-eabi/lib/gcc/arm-none-eabi/13.2.0/../../../../arm-none-eabi/lib/libc.a(libc_string_strncmp.c.o)
 .debug_frame   0x00000288       0x2c /opt/wonderful/toolchain/gcc-arm-none-eabi/lib/gcc/arm-none-eabi/13.2.0/../../../../arm-none-eabi/lib/libc.a(libc_string_strstr.c.o)
 .debug_frame   0x000002b4       0x28 /opt/wonderful/toolchain/gcc-arm-none-eabi/lib/gcc/arm-none-eabi/13.2.0/../../../../arm-none-eabi/lib/libc.a(libc_time_lcltime.c.o)
 .debug_frame   0x000002dc       0x34 /opt/wonderful/toolchain/gcc-arm-none-eabi/lib/gcc/arm-none-eabi/13.2.0/../../../../arm-none-eabi/lib/libc.a(libc_time_lcltime_r.c.o)
 .debug_frame   0x00000310       0x30 /opt/wonderful/toolchain/gcc-arm-none-eabi/lib/gcc/arm-none-eabi/13.2.0/../../../../arm-none-eabi/lib/libc.a(libc_time_time.c.o)
 .debug_frame   0x00000340       0x30 /opt/wonderful/toolchain/gcc-arm-none-eabi/lib/gcc/arm-none-eabi/13.2.0/../../../../arm-none-eabi/lib/libc.a(libc_time_tzcalc_limits.c.o)
 .debug_frame   0x00000370       0x48 /opt/wonderful/toolchain/gcc-arm-none-eabi/lib/gcc/arm-none-eabi/13.2.0/../../../../arm-none-eabi/lib/libc.a(libc_time_tzset.c.o)
 .debug_frame   0x000003b8       0x28 /opt/wonderful/toolchain/gcc-arm-none-eabi/lib/gcc/arm-none-eabi/13.2.0/../../../../arm-none-eabi/lib/libc.a(libc_tinystdio_fclose.c.o)
 .debug_frame   0x000003e0       0x28 /opt/wonderful/toolchain/gcc-arm-none-eabi/lib/gcc/arm-none-eabi/13.2.0/../../../../arm-none-eabi/lib/libc.a(libc_tinystdio_fflush.c.o)
 .debug_frame   0x00000408       0x20 /opt/wonderful/toolchain/gcc-arm-none-eabi/lib/gcc/arm-none-eabi/13.2.0/../../../../arm-none-eabi/lib/libc.a(libc_tinystdio_fileno.c.o)
 .debug_frame   0x00000428       0x34 /opt/wonderful/toolchain/gcc-arm-none-eabi/lib/gcc/arm-none-eabi/13.2.0/../../../../arm-none-eabi/lib/libc.a(libc_tinystdio_fread.c.o)
 .debug_frame   0x0000045c       0x28 /opt/wonderful/toolchain/gcc-arm-none-eabi/lib/gcc/arm-none-eabi/13.2.0/../../../../arm-none-eabi/lib/libc.a(libc_tinystdio_fseek.c.o)
 .debug_frame   0x00000484       0x28 /opt/wonderful/toolchain/gcc-arm-none-eabi/lib/gcc/arm-none-eabi/13.2.0/../../../../arm-none-eabi/lib/libc.a(libc_tinystdio_ftell.c.o)
 .debug_frame   0x000004ac       0x30 /opt/wonderful/toolchain/gcc-arm-none-eabi/lib/gcc/arm-none-eabi/13.2.0/../../../../arm-none-eabi/lib/libc.a(libc_tinystdio_printf.c.o)
 .debug_frame   0x000004dc       0x30 /opt/wonderful/toolchain/gcc-arm-none-eabi/lib/gcc/arm-none-eabi/13.2.0/../../../../arm-none-eabi/lib/libc.a(libc_tinystdio_puts.c.o)
 .debug_frame   0x0000050c       0x28 /opt/wonderful/toolchain/gcc-arm-none-eabi/lib/gcc/arm-none-eabi/13.2.0/../../../../arm-none-eabi/lib/libc.a(libc_tinystdio_rewind.c.o)
 .debug_frame   0x00000534       0x2c /opt/wonderful/toolchain/gcc-arm-none-eabi/lib/gcc/arm-none-eabi/13.2.0/../../../../arm-none-eabi/lib/libc.a(libc_tinystdio_setvbuf.c.o)
 .debug_frame   0x00000560       0x34 /opt/wonderful/toolchain/gcc-arm-none-eabi/lib/gcc/arm-none-eabi/13.2.0/../../../../arm-none-eabi/lib/libc.a(libc_tinystdio_snprintf.c.o)
 .debug_frame   0x00000594       0x34 /opt/wonderful/toolchain/gcc-arm-none-eabi/lib/gcc/arm-none-eabi/13.2.0/../../../../arm-none-eabi/lib/libc.a(libc_tinystdio_sprintf.c.o)
 .debug_frame   0x000005c8       0x34 /opt/wonderful/toolchain/gcc-arm-none-eabi/lib/gcc/arm-none-eabi/13.2.0/../../../../arm-none-eabi/lib/libc.a(libc_tinystdio_sscanf.c.o)
 .debug_frame   0x000005fc       0x30 /opt/wonderful/toolchain/gcc-arm-none-eabi/lib/gcc/arm-none-eabi/13.2.0/../../../../arm-none-eabi/lib/libc.a(libc_tinystdio_strtoul.c.o)
 .debug_frame   0x0000062c       0x78 /opt/wonderful/toolchain/gcc-arm-none-eabi/lib/gcc/arm-none-eabi/13.2.0/../../../../arm-none-eabi/lib/libc.a(libc_tinystdio_vfprintf.c.o)
 .debug_frame   0x000006a4       0x98 /opt/wonderful/toolchain/gcc-arm-none-eabi/lib/gcc/arm-none-eabi/13.2.0/../../../../arm-none-eabi/lib/libc.a(libc_tinystdio_vfscanf.c.o)
 .debug_frame   0x0000073c       0x74 /opt/wonderful/toolchain/gcc-arm-none-eabi/lib/gcc/arm-none-eabi/13.2.0/../../../../arm-none-eabi/lib/libc.a(libc_tinystdio_dtoa_ryu.c.o)
 .debug_frame   0x000007b0       0x6c /opt/wonderful/toolchain/gcc-arm-none-eabi/lib/gcc/arm-none-eabi/13.2.0/../../../../arm-none-eabi/lib/libc.a(libc_tinystdio_ryu_table.c.o)
 .debug_frame   0x0000081c       0x50 /opt/wonderful/toolchain/gcc-arm-none-eabi/lib/gcc/arm-none-eabi/13.2.0/../../../../arm-none-eabi/lib/libc.a(libc_tinystdio_atod_ryu.c.o)
 .debug_frame   0x0000086c       0x34 /opt/wonderful/toolchain/gcc-arm-none-eabi/lib/gcc/arm-none-eabi/13.2.0/../../../../arm-none-eabi/lib/libc.a(libc_tinystdio_atof_ryu.c.o)
 .debug_frame   0x000008a0       0x30 /opt/wonderful/toolchain/gcc-arm-none-eabi/lib/gcc/arm-none-eabi/13.2.0/../../../../arm-none-eabi/lib/libc.a(libc_tinystdio_ryu_log2pow5.c.o)
 .debug_frame   0x000008d0       0x30 /opt/wonderful/toolchain/gcc-arm-none-eabi/lib/gcc/arm-none-eabi/13.2.0/../../../../arm-none-eabi/lib/libc.a(libc_tinystdio_ryu_log10.c.o)
 .debug_frame   0x00000900       0x20 /opt/wonderful/toolchain/gcc-arm-none-eabi/lib/gcc/arm-none-eabi/13.2.0/../../../../arm-none-eabi/lib/libc.a(libc_tinystdio_ryu_pow5bits.c.o)
 .debug_frame   0x00000920       0x50 /opt/wonderful/toolchain/gcc-arm-none-eabi/lib/gcc/arm-none-eabi/13.2.0/../../../../arm-none-eabi/lib/libc.a(libc_tinystdio_ryu_umul128.c.o)
 .debug_frame   0x00000970       0x68 /opt/wonderful/toolchain/gcc-arm-none-eabi/lib/gcc/arm-none-eabi/13.2.0/../../../../arm-none-eabi/lib/libc.a(libc_tinystdio_ryu_divpow2.c.o)
 .debug_frame   0x000009d8       0x20 /opt/wonderful/toolchain/gcc-arm-none-eabi/lib/gcc/arm-none-eabi/13.2.0/../../../../arm-none-eabi/lib/libc.a(libc_tinystdio_exchange.c.o)
 .debug_frame   0x000009f8       0x30 /opt/wonderful/toolchain/gcc-arm-none-eabi/lib/gcc/arm-none-eabi/13.2.0/../../../../arm-none-eabi/lib/libc.a(libc_tinystdio_fopen.c.o)
 .debug_frame   0x00000a28       0x30 /opt/wonderful/toolchain/gcc-arm-none-eabi/lib/gcc/arm-none-eabi/13.2.0/../../../../arm-none-eabi/lib/libc.a(libc_tinystdio_fdopen.c.o)
 .debug_frame   0x00000a58       0x28 /opt/wonderful/toolchain/gcc-arm-none-eabi/lib/gcc/arm-none-eabi/13.2.0/../../../../arm-none-eabi/lib/libc.a(memmove.c.o)
 .debug_frame   0x00000a80       0x2c /opt/wonderful/toolchain/gcc-arm-none-eabi/lib/gcc/arm-none-eabi/13.2.0/../../../../arm-none-eabi/lib/libc.a(libc_misc_fini.c.o)
 .debug_frame   0x00000aac       0x2c /opt/wonderful/toolchain/gcc-arm-none-eabi/lib/gcc/arm-none-eabi/13.2.0/../../../../arm-none-eabi/lib/libc.a(libc_stdlib_getenv.c.o)
 .debug_frame   0x00000ad8       0x30 /opt/wonderful/toolchain/gcc-arm-none-eabi/lib/gcc/arm-none-eabi/13.2.0/../../../../arm-none-eabi/lib/libc.a(libc_stdlib_getenv_r.c.o)
 .debug_frame   0x00000b08       0x20 /opt/wonderful/toolchain/gcc-arm-none-eabi/lib/gcc/arm-none-eabi/13.2.0/../../../../arm-none-eabi/lib/libc.a(libc_string_strnlen.c.o)
 .debug_frame   0x00000b28       0x20 /opt/wonderful/toolchain/gcc-arm-none-eabi/lib/gcc/arm-none-eabi/13.2.0/../../../../arm-none-eabi/lib/libc.a(libc_time_gettzinfo.c.o)
 .debug_frame   0x00000b48       0x30 /opt/wonderful/toolchain/gcc-arm-none-eabi/lib/gcc/arm-none-eabi/13.2.0/../../../../arm-none-eabi/lib/libc.a(libc_time_gmtime_r.c.o)
 .debug_frame   0x00000b78      0x15c /opt/wonderful/toolchain/gcc-arm-none-eabi/lib/gcc/arm-none-eabi/13.2.0/../../../../arm-none-eabi/lib/libc.a(libc_tinystdio_bufio.c.o)
 .debug_frame   0x00000cd4       0x30 /opt/wonderful/toolchain/gcc-arm-none-eabi/lib/gcc/arm-none-eabi/13.2.0/../../../../arm-none-eabi/lib/libc.a(libc_tinystdio_dtox_engine.c.o)
 .debug_frame   0x00000d04       0x28 /opt/wonderful/toolchain/gcc-arm-none-eabi/lib/gcc/arm-none-eabi/13.2.0/../../../../arm-none-eabi/lib/libc.a(libc_tinystdio_fgetc.c.o)
 .debug_frame   0x00000d2c       0x20 /opt/wonderful/toolchain/gcc-arm-none-eabi/lib/gcc/arm-none-eabi/13.2.0/../../../../arm-none-eabi/lib/libc.a(libc_tinystdio_filestrget.c.o)
 .debug_frame   0x00000d4c       0x20 /opt/wonderful/toolchain/gcc-arm-none-eabi/lib/gcc/arm-none-eabi/13.2.0/../../../../arm-none-eabi/lib/libc.a(libc_tinystdio_filestrput.c.o)
 .debug_frame   0x00000d6c       0x28 /opt/wonderful/toolchain/gcc-arm-none-eabi/lib/gcc/arm-none-eabi/13.2.0/../../../../arm-none-eabi/lib/libc.a(libc_tinystdio_fseeko.c.o)
 .debug_frame   0x00000d94       0x30 /opt/wonderful/toolchain/gcc-arm-none-eabi/lib/gcc/arm-none-eabi/13.2.0/../../../../arm-none-eabi/lib/libc.a(libc_tinystdio_sflags.c.o)
 .debug_frame   0x00000dc4       0x2c /opt/wonderful/toolchain/gcc-arm-none-eabi/lib/gcc/arm-none-eabi/13.2.0/../../../../arm-none-eabi/lib/libc.a(libc_tinystdio_ungetc.c.o)
 .debug_frame   0x00000df0       0x28 /opt/wonderful/toolchain/gcc-arm-none-eabi/lib/gcc/arm-none-eabi/13.2.0/../../../../arm-none-eabi/lib/libc.a(libc_tinystdio_compare_exchange.c.o)
 .debug_frame   0x00000e18       0x20 /opt/wonderful/toolchain/gcc-arm-none-eabi/lib/gcc/arm-none-eabi/13.2.0/thumb/libgcc.a(_udivsi3.o)
 .debug_frame   0x00000e38       0x20 /opt/wonderful/toolchain/gcc-arm-none-eabi/lib/gcc/arm-none-eabi/13.2.0/thumb/libgcc.a(_divsi3.o)
 .debug_frame   0x00000e58       0xac /opt/wonderful/toolchain/gcc-arm-none-eabi/lib/gcc/arm-none-eabi/13.2.0/thumb/libgcc.a(_arm_addsubdf3.o)
 .debug_frame   0x00000f04       0x24 /opt/wonderful/toolchain/gcc-arm-none-eabi/lib/gcc/arm-none-eabi/13.2.0/thumb/libgcc.a(_arm_truncdfsf2.o)
 .debug_frame   0x00000f28       0x44 /opt/wonderful/toolchain/gcc-arm-none-eabi/lib/gcc/arm-none-eabi/13.2.0/thumb/libgcc.a(_aeabi_ldivmod.o)
 .debug_frame   0x00000f6c       0x2c /opt/wonderful/toolchain/gcc-arm-none-eabi/lib/gcc/arm-none-eabi/13.2.0/thumb/libgcc.a(_aeabi_uldivmod.o)
 .debug_frame   0x00000f98       0x34 /opt/wonderful/toolchain/gcc-arm-none-eabi/lib/gcc/arm-none-eabi/13.2.0/thumb/libgcc.a(_muldi3.o)
 .debug_frame   0x00000fcc       0x3c /opt/wonderful/toolchain/gcc-arm-none-eabi/lib/gcc/arm-none-eabi/13.2.0/thumb/libgcc.a(_udivmoddi4.o)

.debug_str      0x00000000     0x2a92
 *(.debug_str)
 .debug_str     0x00000000     0x2a92 /opt/wonderful/toolchain/gcc-arm-none-eabi/lib/gcc/arm-none-eabi/13.2.0/../../../../arm-none-eabi/lib/libc.a(strcmp.S.o)
                                 0x97 (size before relaxing)
 .debug_str     0x00002a92       0x9a /opt/wonderful/toolchain/gcc-arm-none-eabi/lib/gcc/arm-none-eabi/13.2.0/../../../../arm-none-eabi/lib/libc.a(strlen.S.o)
 .debug_str     0x00002a92      0x28e /opt/wonderful/toolchain/gcc-arm-none-eabi/lib/gcc/arm-none-eabi/13.2.0/../../../../arm-none-eabi/lib/libc.a(malloc-calloc.c.o)
 .debug_str     0x00002a92      0x3e5 /opt/wonderful/toolchain/gcc-arm-none-eabi/lib/gcc/arm-none-eabi/13.2.0/../../../../arm-none-eabi/lib/libc.a(malloc-free.c.o)
 .debug_str     0x00002a92      0x4ac /opt/wonderful/toolchain/gcc-arm-none-eabi/lib/gcc/arm-none-eabi/13.2.0/../../../../arm-none-eabi/lib/libc.a(malloc-malloc.c.o)
 .debug_str     0x00002a92      0x37f /opt/wonderful/toolchain/gcc-arm-none-eabi/lib/gcc/arm-none-eabi/13.2.0/../../../../arm-none-eabi/lib/libc.a(malloc-realloc.c.o)
 .debug_str     0x00002a92      0x16d /opt/wonderful/toolchain/gcc-arm-none-eabi/lib/gcc/arm-none-eabi/13.2.0/../../../../arm-none-eabi/lib/libc.a(libc_errno_errno.c.o)
 .debug_str     0x00002a92      0x268 /opt/wonderful/toolchain/gcc-arm-none-eabi/lib/gcc/arm-none-eabi/13.2.0/../../../../arm-none-eabi/lib/libc.a(libc_misc_init.c.o)
 .debug_str     0x00002a92      0x27c /opt/wonderful/toolchain/gcc-arm-none-eabi/lib/gcc/arm-none-eabi/13.2.0/../../../../arm-none-eabi/lib/libc.a(libc_misc_lock.c.o)
 .debug_str     0x00002a92      0x22f /opt/wonderful/toolchain/gcc-arm-none-eabi/lib/gcc/arm-none-eabi/13.2.0/../../../../arm-none-eabi/lib/libc.a(libc_stdlib_pico-exit.c.o)
 .debug_str     0x00002a92      0x202 /opt/wonderful/toolchain/gcc-arm-none-eabi/lib/gcc/arm-none-eabi/13.2.0/../../../../arm-none-eabi/lib/libc.a(libc_string_memcmp.c.o)
 .debug_str     0x00002a92      0x200 /opt/wonderful/toolchain/gcc-arm-none-eabi/lib/gcc/arm-none-eabi/13.2.0/../../../../arm-none-eabi/lib/libc.a(libc_string_strchr.c.o)
 .debug_str     0x00002a92      0x232 /opt/wonderful/toolchain/gcc-arm-none-eabi/lib/gcc/arm-none-eabi/13.2.0/../../../../arm-none-eabi/lib/libc.a(libc_string_strdup.c.o)
 .debug_str     0x00002a92      0x209 /opt/wonderful/toolchain/gcc-arm-none-eabi/lib/gcc/arm-none-eabi/13.2.0/../../../../arm-none-eabi/lib/libc.a(libc_string_strncmp.c.o)
 .debug_str     0x00002a92      0x207 /opt/wonderful/toolchain/gcc-arm-none-eabi/lib/gcc/arm-none-eabi/13.2.0/../../../../arm-none-eabi/lib/libc.a(libc_string_strstr.c.o)
 .debug_str     0x00002a92      0x280 /opt/wonderful/toolchain/gcc-arm-none-eabi/lib/gcc/arm-none-eabi/13.2.0/../../../../arm-none-eabi/lib/libc.a(libc_time_lcltime.c.o)
 .debug_str     0x00002a92      0x3da /opt/wonderful/toolchain/gcc-arm-none-eabi/lib/gcc/arm-none-eabi/13.2.0/../../../../arm-none-eabi/lib/libc.a(libc_time_lcltime_r.c.o)
 .debug_str     0x00002a92      0x251 /opt/wonderful/toolchain/gcc-arm-none-eabi/lib/gcc/arm-none-eabi/13.2.0/../../../../arm-none-eabi/lib/libc.a(libc_time_lcltime_buf.c.o)
 .debug_str     0x00002a92      0x220 /opt/wonderful/toolchain/gcc-arm-none-eabi/lib/gcc/arm-none-eabi/13.2.0/../../../../arm-none-eabi/lib/libc.a(libc_time_month_lengths.c.o)
 .debug_str     0x00002a92      0x24f /opt/wonderful/toolchain/gcc-arm-none-eabi/lib/gcc/arm-none-eabi/13.2.0/../../../../arm-none-eabi/lib/libc.a(libc_time_time.c.o)
 .debug_str     0x00002a92      0x321 /opt/wonderful/toolchain/gcc-arm-none-eabi/lib/gcc/arm-none-eabi/13.2.0/../../../../arm-none-eabi/lib/libc.a(libc_time_tzcalc_limits.c.o)
 .debug_str     0x00002a92      0x38c /opt/wonderful/toolchain/gcc-arm-none-eabi/lib/gcc/arm-none-eabi/13.2.0/../../../../arm-none-eabi/lib/libc.a(libc_time_tzset.c.o)
 .debug_str     0x00002a92      0x213 /opt/wonderful/toolchain/gcc-arm-none-eabi/lib/gcc/arm-none-eabi/13.2.0/../../../../arm-none-eabi/lib/libc.a(libc_time_tzvars.c.o)
 .debug_str     0x00002a92      0x271 /opt/wonderful/toolchain/gcc-arm-none-eabi/lib/gcc/arm-none-eabi/13.2.0/../../../../arm-none-eabi/lib/libc.a(libc_tinystdio_fclose.c.o)
 .debug_str     0x00002a92      0x260 /opt/wonderful/toolchain/gcc-arm-none-eabi/lib/gcc/arm-none-eabi/13.2.0/../../../../arm-none-eabi/lib/libc.a(libc_tinystdio_fflush.c.o)
 .debug_str     0x00002a92      0x2fa /opt/wonderful/toolchain/gcc-arm-none-eabi/lib/gcc/arm-none-eabi/13.2.0/../../../../arm-none-eabi/lib/libc.a(libc_tinystdio_fileno.c.o)
 .debug_str     0x00002a92      0x2f4 /opt/wonderful/toolchain/gcc-arm-none-eabi/lib/gcc/arm-none-eabi/13.2.0/../../../../arm-none-eabi/lib/libc.a(libc_tinystdio_fread.c.o)
 .debug_str     0x00002a92      0x2e2 /opt/wonderful/toolchain/gcc-arm-none-eabi/lib/gcc/arm-none-eabi/13.2.0/../../../../arm-none-eabi/lib/libc.a(libc_tinystdio_fseek.c.o)
 .debug_str     0x00002a92      0x2bb /opt/wonderful/toolchain/gcc-arm-none-eabi/lib/gcc/arm-none-eabi/13.2.0/../../../../arm-none-eabi/lib/libc.a(libc_tinystdio_ftell.c.o)
 .debug_str     0x00002a92      0x28f /opt/wonderful/toolchain/gcc-arm-none-eabi/lib/gcc/arm-none-eabi/13.2.0/../../../../arm-none-eabi/lib/libc.a(libc_tinystdio_printf.c.o)
 .debug_str     0x00002a92      0x25c /opt/wonderful/toolchain/gcc-arm-none-eabi/lib/gcc/arm-none-eabi/13.2.0/../../../../arm-none-eabi/lib/libc.a(libc_tinystdio_puts.c.o)
 .debug_str     0x00002a92      0x266 /opt/wonderful/toolchain/gcc-arm-none-eabi/lib/gcc/arm-none-eabi/13.2.0/../../../../arm-none-eabi/lib/libc.a(libc_tinystdio_rewind.c.o)
 .debug_str     0x00002a92      0x2bb /opt/wonderful/toolchain/gcc-arm-none-eabi/lib/gcc/arm-none-eabi/13.2.0/../../../../arm-none-eabi/lib/libc.a(libc_tinystdio_setvbuf.c.o)
 .debug_str     0x00002a92      0x2cf /opt/wonderful/toolchain/gcc-arm-none-eabi/lib/gcc/arm-none-eabi/13.2.0/../../../../arm-none-eabi/lib/libc.a(libc_tinystdio_snprintf.c.o)
 .debug_str     0x00002a92      0x2cd /opt/wonderful/toolchain/gcc-arm-none-eabi/lib/gcc/arm-none-eabi/13.2.0/../../../../arm-none-eabi/lib/libc.a(libc_tinystdio_sprintf.c.o)
 .debug_str     0x00002a92      0x2ca /opt/wonderful/toolchain/gcc-arm-none-eabi/lib/gcc/arm-none-eabi/13.2.0/../../../../arm-none-eabi/lib/libc.a(libc_tinystdio_sscanf.c.o)
 .debug_str     0x00002a92      0x250 /opt/wonderful/toolchain/gcc-arm-none-eabi/lib/gcc/arm-none-eabi/13.2.0/../../../../arm-none-eabi/lib/libc.a(libc_tinystdio_strtoul.c.o)
 .debug_str     0x00002a92      0x414 /opt/wonderful/toolchain/gcc-arm-none-eabi/lib/gcc/arm-none-eabi/13.2.0/../../../../arm-none-eabi/lib/libc.a(libc_tinystdio_vfprintf.c.o)
 .debug_str     0x00002a92      0x4de /opt/wonderful/toolchain/gcc-arm-none-eabi/lib/gcc/arm-none-eabi/13.2.0/../../../../arm-none-eabi/lib/libc.a(libc_tinystdio_vfscanf.c.o)
 .debug_str     0x00002a92      0x50e /opt/wonderful/toolchain/gcc-arm-none-eabi/lib/gcc/arm-none-eabi/13.2.0/../../../../arm-none-eabi/lib/libc.a(libc_tinystdio_dtoa_ryu.c.o)
 .debug_str     0x00002a92      0x36a /opt/wonderful/toolchain/gcc-arm-none-eabi/lib/gcc/arm-none-eabi/13.2.0/../../../../arm-none-eabi/lib/libc.a(libc_tinystdio_ryu_table.c.o)
 .debug_str     0x00002a92      0x399 /opt/wonderful/toolchain/gcc-arm-none-eabi/lib/gcc/arm-none-eabi/13.2.0/../../../../arm-none-eabi/lib/libc.a(libc_tinystdio_atod_ryu.c.o)
 .debug_str     0x00002a92      0x352 /opt/wonderful/toolchain/gcc-arm-none-eabi/lib/gcc/arm-none-eabi/13.2.0/../../../../arm-none-eabi/lib/libc.a(libc_tinystdio_atof_ryu.c.o)
 .debug_str     0x00002a92      0x23e /opt/wonderful/toolchain/gcc-arm-none-eabi/lib/gcc/arm-none-eabi/13.2.0/../../../../arm-none-eabi/lib/libc.a(libc_tinystdio_ryu_log2pow5.c.o)
 .debug_str     0x00002a92      0x238 /opt/wonderful/toolchain/gcc-arm-none-eabi/lib/gcc/arm-none-eabi/13.2.0/../../../../arm-none-eabi/lib/libc.a(libc_tinystdio_ryu_log10.c.o)
 .debug_str     0x00002a92      0x22e /opt/wonderful/toolchain/gcc-arm-none-eabi/lib/gcc/arm-none-eabi/13.2.0/../../../../arm-none-eabi/lib/libc.a(libc_tinystdio_ryu_pow5bits.c.o)
 .debug_str     0x00002a92      0x2a6 /opt/wonderful/toolchain/gcc-arm-none-eabi/lib/gcc/arm-none-eabi/13.2.0/../../../../arm-none-eabi/lib/libc.a(libc_tinystdio_ryu_umul128.c.o)
 .debug_str     0x00002a92      0x2e8 /opt/wonderful/toolchain/gcc-arm-none-eabi/lib/gcc/arm-none-eabi/13.2.0/../../../../arm-none-eabi/lib/libc.a(libc_tinystdio_ryu_divpow2.c.o)
 .debug_str     0x00002a92      0x260 /opt/wonderful/toolchain/gcc-arm-none-eabi/lib/gcc/arm-none-eabi/13.2.0/../../../../arm-none-eabi/lib/libc.a(libc_tinystdio_exchange.c.o)
 .debug_str     0x00002a92      0x297 /opt/wonderful/toolchain/gcc-arm-none-eabi/lib/gcc/arm-none-eabi/13.2.0/../../../../arm-none-eabi/lib/libc.a(libc_tinystdio_fopen.c.o)
 .debug_str     0x00002a92      0x3cc /opt/wonderful/toolchain/gcc-arm-none-eabi/lib/gcc/arm-none-eabi/13.2.0/../../../../arm-none-eabi/lib/libc.a(libc_tinystdio_fdopen.c.o)
 .debug_str     0x00002a92      0x234 /opt/wonderful/toolchain/gcc-arm-none-eabi/lib/gcc/arm-none-eabi/13.2.0/../../../../arm-none-eabi/lib/libc.a(memmove.c.o)
 .debug_str     0x00002a92      0x23e /opt/wonderful/toolchain/gcc-arm-none-eabi/lib/gcc/arm-none-eabi/13.2.0/../../../../arm-none-eabi/lib/libc.a(libc_misc_fini.c.o)
 .debug_str     0x00002a92      0x215 /opt/wonderful/toolchain/gcc-arm-none-eabi/lib/gcc/arm-none-eabi/13.2.0/../../../../arm-none-eabi/lib/libc.a(libc_stdlib_getenv.c.o)
 .debug_str     0x00002a92      0x2a2 /opt/wonderful/toolchain/gcc-arm-none-eabi/lib/gcc/arm-none-eabi/13.2.0/../../../../arm-none-eabi/lib/libc.a(libc_stdlib_getenv_r.c.o)
 .debug_str     0x00002a92      0x20f /opt/wonderful/toolchain/gcc-arm-none-eabi/lib/gcc/arm-none-eabi/13.2.0/../../../../arm-none-eabi/lib/libc.a(libc_string_strnlen.c.o)
 .debug_str     0x00002a92      0x28a /opt/wonderful/toolchain/gcc-arm-none-eabi/lib/gcc/arm-none-eabi/13.2.0/../../../../arm-none-eabi/lib/libc.a(libc_time_gettzinfo.c.o)
 .debug_str     0x00002a92      0x2de /opt/wonderful/toolchain/gcc-arm-none-eabi/lib/gcc/arm-none-eabi/13.2.0/../../../../arm-none-eabi/lib/libc.a(libc_time_gmtime_r.c.o)
 .debug_str     0x00002a92      0x494 /opt/wonderful/toolchain/gcc-arm-none-eabi/lib/gcc/arm-none-eabi/13.2.0/../../../../arm-none-eabi/lib/libc.a(libc_tinystdio_bufio.c.o)
 .debug_str     0x00002a92      0x2c6 /opt/wonderful/toolchain/gcc-arm-none-eabi/lib/gcc/arm-none-eabi/13.2.0/../../../../arm-none-eabi/lib/libc.a(libc_tinystdio_dtox_engine.c.o)
 .debug_str     0x00002a92      0x277 /opt/wonderful/toolchain/gcc-arm-none-eabi/lib/gcc/arm-none-eabi/13.2.0/../../../../arm-none-eabi/lib/libc.a(libc_tinystdio_fgetc.c.o)
 .debug_str     0x00002a92      0x290 /opt/wonderful/toolchain/gcc-arm-none-eabi/lib/gcc/arm-none-eabi/13.2.0/../../../../arm-none-eabi/lib/libc.a(libc_tinystdio_filestrget.c.o)
 .debug_str     0x00002a92      0x290 /opt/wonderful/toolchain/gcc-arm-none-eabi/lib/gcc/arm-none-eabi/13.2.0/../../../../arm-none-eabi/lib/libc.a(libc_tinystdio_filestrput.c.o)
 .debug_str     0x00002a92      0x2e4 /opt/wonderful/toolchain/gcc-arm-none-eabi/lib/gcc/arm-none-eabi/13.2.0/../../../../arm-none-eabi/lib/libc.a(libc_tinystdio_fseeko.c.o)
 .debug_str     0x00002a92      0x21b /opt/wonderful/toolchain/gcc-arm-none-eabi/lib/gcc/arm-none-eabi/13.2.0/../../../../arm-none-eabi/lib/libc.a(libc_tinystdio_sflags.c.o)
 .debug_str     0x00002a92      0x287 /opt/wonderful/toolchain/gcc-arm-none-eabi/lib/gcc/arm-none-eabi/13.2.0/../../../../arm-none-eabi/lib/libc.a(libc_tinystdio_ungetc.c.o)
 .debug_str     0x00002a92      0x27e /opt/wonderful/toolchain/gcc-arm-none-eabi/lib/gcc/arm-none-eabi/13.2.0/../../../../arm-none-eabi/lib/libc.a(libc_tinystdio_compare_exchange.c.o)
 .debug_str     0x00002a92      0x18b /opt/wonderful/toolchain/gcc-arm-none-eabi/lib/gcc/arm-none-eabi/13.2.0/../../../../arm-none-eabi/lib/libc.a(libc_stdlib_environ.c.o)
 .debug_str     0x00002a92       0xad /opt/wonderful/toolchain/gcc-arm-none-eabi/lib/gcc/arm-none-eabi/13.2.0/thumb/libgcc.a(_thumb1_case_uqi.o)
 .debug_str     0x00002a92       0xb2 /opt/wonderful/toolchain/gcc-arm-none-eabi/lib/gcc/arm-none-eabi/13.2.0/thumb/libgcc.a(_udivsi3.o)
 .debug_str     0x00002a92       0xb0 /opt/wonderful/toolchain/gcc-arm-none-eabi/lib/gcc/arm-none-eabi/13.2.0/thumb/libgcc.a(_divsi3.o)
 .debug_str     0x00002a92       0xb3 /opt/wonderful/toolchain/gcc-arm-none-eabi/lib/gcc/arm-none-eabi/13.2.0/thumb/libgcc.a(_dvmd_tls.o)
 .debug_str     0x00002a92       0xae /opt/wonderful/toolchain/gcc-arm-none-eabi/lib/gcc/arm-none-eabi/13.2.0/thumb/libgcc.a(_lshrdi3.o)
 .debug_str     0x00002a92       0xae /opt/wonderful/toolchain/gcc-arm-none-eabi/lib/gcc/arm-none-eabi/13.2.0/thumb/libgcc.a(_ashrdi3.o)
 .debug_str     0x00002a92       0xae /opt/wonderful/toolchain/gcc-arm-none-eabi/lib/gcc/arm-none-eabi/13.2.0/thumb/libgcc.a(_ashldi3.o)
 .debug_str     0x00002a92      0x144 /opt/wonderful/toolchain/gcc-arm-none-eabi/lib/gcc/arm-none-eabi/13.2.0/thumb/libgcc.a(_arm_addsubdf3.o)
 .debug_str     0x00002a92       0xb1 /opt/wonderful/toolchain/gcc-arm-none-eabi/lib/gcc/arm-none-eabi/13.2.0/thumb/libgcc.a(_arm_truncdfsf2.o)
 .debug_str     0x00002a92       0xa0 /opt/wonderful/toolchain/gcc-arm-none-eabi/lib/gcc/arm-none-eabi/13.2.0/thumb/libgcc.a(_clzsi2.o)
 .debug_str     0x00002a92       0xa0 /opt/wonderful/toolchain/gcc-arm-none-eabi/lib/gcc/arm-none-eabi/13.2.0/thumb/libgcc.a(_clzdi2.o)
 .debug_str     0x00002a92       0x93 /opt/wonderful/toolchain/gcc-arm-none-eabi/lib/gcc/arm-none-eabi/13.2.0/thumb/libgcc.a(_aeabi_ldivmod.o)
 .debug_str     0x00002a92       0x93 /opt/wonderful/toolchain/gcc-arm-none-eabi/lib/gcc/arm-none-eabi/13.2.0/thumb/libgcc.a(_aeabi_uldivmod.o)
 .debug_str     0x00002a92      0x662 /opt/wonderful/toolchain/gcc-arm-none-eabi/lib/gcc/arm-none-eabi/13.2.0/thumb/libgcc.a(_muldi3.o)
 .debug_str     0x00002a92      0x638 /opt/wonderful/toolchain/gcc-arm-none-eabi/lib/gcc/arm-none-eabi/13.2.0/thumb/libgcc.a(_udivmoddi4.o)

.debug_loc
 *(.debug_loc)

.debug_macinfo
 *(.debug_macinfo)

.debug_weaknames
 *(.debug_weaknames)

.debug_funcnames
 *(.debug_funcnames)

.debug_typenames
 *(.debug_typenames)

.debug_varnames
 *(.debug_varnames)

.stack          0x00080000        0x0
                0x00080000                        _stack = .
 *(.stack)
OUTPUT(build/culminating_game.elf elf32-littlearm)
LOAD linker stubs

.debug_line_str
                0x00000000      0x137
 .debug_line_str
                0x00000000      0x137 /opt/wonderful/toolchain/gcc-arm-none-eabi/lib/gcc/arm-none-eabi/13.2.0/../../../../arm-none-eabi/lib/libc.a(strcmp.S.o)
                                 0x84 (size before relaxing)
 .debug_line_str
                0x00000137       0x87 /opt/wonderful/toolchain/gcc-arm-none-eabi/lib/gcc/arm-none-eabi/13.2.0/../../../../arm-none-eabi/lib/libc.a(strlen.S.o)
 .debug_line_str
                0x00000137       0x8b /opt/wonderful/toolchain/gcc-arm-none-eabi/lib/gcc/arm-none-eabi/13.2.0/thumb/libgcc.a(_thumb1_case_uqi.o)
 .debug_line_str
                0x00000137       0x8b /opt/wonderful/toolchain/gcc-arm-none-eabi/lib/gcc/arm-none-eabi/13.2.0/thumb/libgcc.a(_udivsi3.o)
 .debug_line_str
                0x00000137       0x8b /opt/wonderful/toolchain/gcc-arm-none-eabi/lib/gcc/arm-none-eabi/13.2.0/thumb/libgcc.a(_divsi3.o)
 .debug_line_str
                0x00000137       0x8b /opt/wonderful/toolchain/gcc-arm-none-eabi/lib/gcc/arm-none-eabi/13.2.0/thumb/libgcc.a(_dvmd_tls.o)
 .debug_line_str
                0x00000137       0x8b /opt/wonderful/toolchain/gcc-arm-none-eabi/lib/gcc/arm-none-eabi/13.2.0/thumb/libgcc.a(_lshrdi3.o)
 .debug_line_str
                0x00000137       0x8b /opt/wonderful/toolchain/gcc-arm-none-eabi/lib/gcc/arm-none-eabi/13.2.0/thumb/libgcc.a(_ashrdi3.o)
 .debug_line_str
                0x00000137       0x8b /opt/wonderful/toolchain/gcc-arm-none-eabi/lib/gcc/arm-none-eabi/13.2.0/thumb/libgcc.a(_ashldi3.o)
 .debug_line_str
                0x00000137       0x8c /opt/wonderful/toolchain/gcc-arm-none-eabi/lib/gcc/arm-none-eabi/13.2.0/thumb/libgcc.a(_arm_addsubdf3.o)
 .debug_line_str
                0x00000137       0x8c /opt/wonderful/toolchain/gcc-arm-none-eabi/lib/gcc/arm-none-eabi/13.2.0/thumb/libgcc.a(_arm_truncdfsf2.o)
 .debug_line_str
                0x00000137       0x8b /opt/wonderful/toolchain/gcc-arm-none-eabi/lib/gcc/arm-none-eabi/13.2.0/thumb/libgcc.a(_clzsi2.o)
 .debug_line_str
                0x00000137       0x8b /opt/wonderful/toolchain/gcc-arm-none-eabi/lib/gcc/arm-none-eabi/13.2.0/thumb/libgcc.a(_clzdi2.o)
 .debug_line_str
                0x00000137       0x87 /opt/wonderful/toolchain/gcc-arm-none-eabi/lib/gcc/arm-none-eabi/13.2.0/thumb/libgcc.a(_aeabi_ldivmod.o)
 .debug_line_str
                0x00000137       0x87 /opt/wonderful/toolchain/gcc-arm-none-eabi/lib/gcc/arm-none-eabi/13.2.0/thumb/libgcc.a(_aeabi_uldivmod.o)

.debug_loclists
                0x00000000     0x8069
 .debug_loclists
                0x00000000      0x1ac /opt/wonderful/toolchain/gcc-arm-none-eabi/lib/gcc/arm-none-eabi/13.2.0/../../../../arm-none-eabi/lib/libc.a(malloc-calloc.c.o)
 .debug_loclists
                0x000001ac      0x356 /opt/wonderful/toolchain/gcc-arm-none-eabi/lib/gcc/arm-none-eabi/13.2.0/../../../../arm-none-eabi/lib/libc.a(malloc-free.c.o)
 .debug_loclists
                0x00000502      0x6db /opt/wonderful/toolchain/gcc-arm-none-eabi/lib/gcc/arm-none-eabi/13.2.0/../../../../arm-none-eabi/lib/libc.a(malloc-malloc.c.o)
 .debug_loclists
                0x00000bdd      0xc1f /opt/wonderful/toolchain/gcc-arm-none-eabi/lib/gcc/arm-none-eabi/13.2.0/../../../../arm-none-eabi/lib/libc.a(malloc-realloc.c.o)
 .debug_loclists
                0x000017fc       0x42 /opt/wonderful/toolchain/gcc-arm-none-eabi/lib/gcc/arm-none-eabi/13.2.0/../../../../arm-none-eabi/lib/libc.a(libc_misc_init.c.o)
 .debug_loclists
                0x0000183e       0x20 /opt/wonderful/toolchain/gcc-arm-none-eabi/lib/gcc/arm-none-eabi/13.2.0/../../../../arm-none-eabi/lib/libc.a(libc_stdlib_pico-exit.c.o)
 .debug_loclists
                0x0000185e       0xf5 /opt/wonderful/toolchain/gcc-arm-none-eabi/lib/gcc/arm-none-eabi/13.2.0/../../../../arm-none-eabi/lib/libc.a(libc_string_memcmp.c.o)
 .debug_loclists
                0x00001953       0x96 /opt/wonderful/toolchain/gcc-arm-none-eabi/lib/gcc/arm-none-eabi/13.2.0/../../../../arm-none-eabi/lib/libc.a(libc_string_strchr.c.o)
 .debug_loclists
                0x000019e9       0x56 /opt/wonderful/toolchain/gcc-arm-none-eabi/lib/gcc/arm-none-eabi/13.2.0/../../../../arm-none-eabi/lib/libc.a(libc_string_strdup.c.o)
 .debug_loclists
                0x00001a3f       0x96 /opt/wonderful/toolchain/gcc-arm-none-eabi/lib/gcc/arm-none-eabi/13.2.0/../../../../arm-none-eabi/lib/libc.a(libc_string_strncmp.c.o)
 .debug_loclists
                0x00001ad5       0x3b /opt/wonderful/toolchain/gcc-arm-none-eabi/lib/gcc/arm-none-eabi/13.2.0/../../../../arm-none-eabi/lib/libc.a(libc_string_strstr.c.o)
 .debug_loclists
                0x00001b10       0x30 /opt/wonderful/toolchain/gcc-arm-none-eabi/lib/gcc/arm-none-eabi/13.2.0/../../../../arm-none-eabi/lib/libc.a(libc_time_lcltime.c.o)
 .debug_loclists
                0x00001b40      0x182 /opt/wonderful/toolchain/gcc-arm-none-eabi/lib/gcc/arm-none-eabi/13.2.0/../../../../arm-none-eabi/lib/libc.a(libc_time_lcltime_r.c.o)
 .debug_loclists
                0x00001cc2       0x30 /opt/wonderful/toolchain/gcc-arm-none-eabi/lib/gcc/arm-none-eabi/13.2.0/../../../../arm-none-eabi/lib/libc.a(libc_time_time.c.o)
 .debug_loclists
                0x00001cf2      0x1ad /opt/wonderful/toolchain/gcc-arm-none-eabi/lib/gcc/arm-none-eabi/13.2.0/../../../../arm-none-eabi/lib/libc.a(libc_time_tzcalc_limits.c.o)
 .debug_loclists
                0x00001e9f      0x32d /opt/wonderful/toolchain/gcc-arm-none-eabi/lib/gcc/arm-none-eabi/13.2.0/../../../../arm-none-eabi/lib/libc.a(libc_time_tzset.c.o)
 .debug_loclists
                0x000021cc       0x54 /opt/wonderful/toolchain/gcc-arm-none-eabi/lib/gcc/arm-none-eabi/13.2.0/../../../../arm-none-eabi/lib/libc.a(libc_tinystdio_fclose.c.o)
 .debug_loclists
                0x00002220       0x29 /opt/wonderful/toolchain/gcc-arm-none-eabi/lib/gcc/arm-none-eabi/13.2.0/../../../../arm-none-eabi/lib/libc.a(libc_tinystdio_fflush.c.o)
 .debug_loclists
                0x00002249       0x4b /opt/wonderful/toolchain/gcc-arm-none-eabi/lib/gcc/arm-none-eabi/13.2.0/../../../../arm-none-eabi/lib/libc.a(libc_tinystdio_fileno.c.o)
 .debug_loclists
                0x00002294      0x16a /opt/wonderful/toolchain/gcc-arm-none-eabi/lib/gcc/arm-none-eabi/13.2.0/../../../../arm-none-eabi/lib/libc.a(libc_tinystdio_fread.c.o)
 .debug_loclists
                0x000023fe       0xd8 /opt/wonderful/toolchain/gcc-arm-none-eabi/lib/gcc/arm-none-eabi/13.2.0/../../../../arm-none-eabi/lib/libc.a(libc_tinystdio_fseek.c.o)
 .debug_loclists
                0x000024d6       0x74 /opt/wonderful/toolchain/gcc-arm-none-eabi/lib/gcc/arm-none-eabi/13.2.0/../../../../arm-none-eabi/lib/libc.a(libc_tinystdio_ftell.c.o)
 .debug_loclists
                0x0000254a       0x17 /opt/wonderful/toolchain/gcc-arm-none-eabi/lib/gcc/arm-none-eabi/13.2.0/../../../../arm-none-eabi/lib/libc.a(libc_tinystdio_printf.c.o)
 .debug_loclists
                0x00002561       0x72 /opt/wonderful/toolchain/gcc-arm-none-eabi/lib/gcc/arm-none-eabi/13.2.0/../../../../arm-none-eabi/lib/libc.a(libc_tinystdio_puts.c.o)
 .debug_loclists
                0x000025d3       0x30 /opt/wonderful/toolchain/gcc-arm-none-eabi/lib/gcc/arm-none-eabi/13.2.0/../../../../arm-none-eabi/lib/libc.a(libc_tinystdio_rewind.c.o)
 .debug_loclists
                0x00002603       0xab /opt/wonderful/toolchain/gcc-arm-none-eabi/lib/gcc/arm-none-eabi/13.2.0/../../../../arm-none-eabi/lib/libc.a(libc_tinystdio_setvbuf.c.o)
 .debug_loclists
                0x000026ae       0xb1 /opt/wonderful/toolchain/gcc-arm-none-eabi/lib/gcc/arm-none-eabi/13.2.0/../../../../arm-none-eabi/lib/libc.a(libc_tinystdio_snprintf.c.o)
 .debug_loclists
                0x0000275f       0x3b /opt/wonderful/toolchain/gcc-arm-none-eabi/lib/gcc/arm-none-eabi/13.2.0/../../../../arm-none-eabi/lib/libc.a(libc_tinystdio_sprintf.c.o)
 .debug_loclists
                0x0000279a       0x3b /opt/wonderful/toolchain/gcc-arm-none-eabi/lib/gcc/arm-none-eabi/13.2.0/../../../../arm-none-eabi/lib/libc.a(libc_tinystdio_sscanf.c.o)
 .debug_loclists
                0x000027d5      0x245 /opt/wonderful/toolchain/gcc-arm-none-eabi/lib/gcc/arm-none-eabi/13.2.0/../../../../arm-none-eabi/lib/libc.a(libc_tinystdio_strtoul.c.o)
 .debug_loclists
                0x00002a1a      0xf80 /opt/wonderful/toolchain/gcc-arm-none-eabi/lib/gcc/arm-none-eabi/13.2.0/../../../../arm-none-eabi/lib/libc.a(libc_tinystdio_vfprintf.c.o)
 .debug_loclists
                0x0000399a     0x1336 /opt/wonderful/toolchain/gcc-arm-none-eabi/lib/gcc/arm-none-eabi/13.2.0/../../../../arm-none-eabi/lib/libc.a(libc_tinystdio_vfscanf.c.o)
 .debug_loclists
                0x00004cd0      0xc15 /opt/wonderful/toolchain/gcc-arm-none-eabi/lib/gcc/arm-none-eabi/13.2.0/../../../../arm-none-eabi/lib/libc.a(libc_tinystdio_dtoa_ryu.c.o)
 .debug_loclists
                0x000058e5      0x2aa /opt/wonderful/toolchain/gcc-arm-none-eabi/lib/gcc/arm-none-eabi/13.2.0/../../../../arm-none-eabi/lib/libc.a(libc_tinystdio_ryu_table.c.o)
 .debug_loclists
                0x00005b8f      0x36b /opt/wonderful/toolchain/gcc-arm-none-eabi/lib/gcc/arm-none-eabi/13.2.0/../../../../arm-none-eabi/lib/libc.a(libc_tinystdio_atod_ryu.c.o)
 .debug_loclists
                0x00005efa      0x368 /opt/wonderful/toolchain/gcc-arm-none-eabi/lib/gcc/arm-none-eabi/13.2.0/../../../../arm-none-eabi/lib/libc.a(libc_tinystdio_atof_ryu.c.o)
 .debug_loclists
                0x00006262       0x51 /opt/wonderful/toolchain/gcc-arm-none-eabi/lib/gcc/arm-none-eabi/13.2.0/../../../../arm-none-eabi/lib/libc.a(libc_tinystdio_ryu_log2pow5.c.o)
 .debug_loclists
                0x000062b3       0x46 /opt/wonderful/toolchain/gcc-arm-none-eabi/lib/gcc/arm-none-eabi/13.2.0/../../../../arm-none-eabi/lib/libc.a(libc_tinystdio_ryu_log10.c.o)
 .debug_loclists
                0x000062f9       0x29 /opt/wonderful/toolchain/gcc-arm-none-eabi/lib/gcc/arm-none-eabi/13.2.0/../../../../arm-none-eabi/lib/libc.a(libc_tinystdio_ryu_pow5bits.c.o)
 .debug_loclists
                0x00006322      0x187 /opt/wonderful/toolchain/gcc-arm-none-eabi/lib/gcc/arm-none-eabi/13.2.0/../../../../arm-none-eabi/lib/libc.a(libc_tinystdio_ryu_umul128.c.o)
 .debug_loclists
                0x000064a9      0x1c2 /opt/wonderful/toolchain/gcc-arm-none-eabi/lib/gcc/arm-none-eabi/13.2.0/../../../../arm-none-eabi/lib/libc.a(libc_tinystdio_ryu_divpow2.c.o)
 .debug_loclists
                0x0000666b       0x55 /opt/wonderful/toolchain/gcc-arm-none-eabi/lib/gcc/arm-none-eabi/13.2.0/../../../../arm-none-eabi/lib/libc.a(libc_tinystdio_exchange.c.o)
 .debug_loclists
                0x000066c0       0x81 /opt/wonderful/toolchain/gcc-arm-none-eabi/lib/gcc/arm-none-eabi/13.2.0/../../../../arm-none-eabi/lib/libc.a(libc_tinystdio_fopen.c.o)
 .debug_loclists
                0x00006741       0xe2 /opt/wonderful/toolchain/gcc-arm-none-eabi/lib/gcc/arm-none-eabi/13.2.0/../../../../arm-none-eabi/lib/libc.a(libc_tinystdio_fdopen.c.o)
 .debug_loclists
                0x00006823       0xc7 /opt/wonderful/toolchain/gcc-arm-none-eabi/lib/gcc/arm-none-eabi/13.2.0/../../../../arm-none-eabi/lib/libc.a(memmove.c.o)
 .debug_loclists
                0x000068ea       0x3b /opt/wonderful/toolchain/gcc-arm-none-eabi/lib/gcc/arm-none-eabi/13.2.0/../../../../arm-none-eabi/lib/libc.a(libc_misc_fini.c.o)
 .debug_loclists
                0x00006925       0x29 /opt/wonderful/toolchain/gcc-arm-none-eabi/lib/gcc/arm-none-eabi/13.2.0/../../../../arm-none-eabi/lib/libc.a(libc_stdlib_getenv.c.o)
 .debug_loclists
                0x0000694e       0x9a /opt/wonderful/toolchain/gcc-arm-none-eabi/lib/gcc/arm-none-eabi/13.2.0/../../../../arm-none-eabi/lib/libc.a(libc_stdlib_getenv_r.c.o)
 .debug_loclists
                0x000069e8       0xc9 /opt/wonderful/toolchain/gcc-arm-none-eabi/lib/gcc/arm-none-eabi/13.2.0/../../../../arm-none-eabi/lib/libc.a(libc_string_strnlen.c.o)
 .debug_loclists
                0x00006ab1      0x1a8 /opt/wonderful/toolchain/gcc-arm-none-eabi/lib/gcc/arm-none-eabi/13.2.0/../../../../arm-none-eabi/lib/libc.a(libc_time_gmtime_r.c.o)
 .debug_loclists
                0x00006c59      0xaf8 /opt/wonderful/toolchain/gcc-arm-none-eabi/lib/gcc/arm-none-eabi/13.2.0/../../../../arm-none-eabi/lib/libc.a(libc_tinystdio_bufio.c.o)
 .debug_loclists
                0x00007751      0x252 /opt/wonderful/toolchain/gcc-arm-none-eabi/lib/gcc/arm-none-eabi/13.2.0/../../../../arm-none-eabi/lib/libc.a(libc_tinystdio_dtox_engine.c.o)
 .debug_loclists
                0x000079a3       0x68 /opt/wonderful/toolchain/gcc-arm-none-eabi/lib/gcc/arm-none-eabi/13.2.0/../../../../arm-none-eabi/lib/libc.a(libc_tinystdio_fgetc.c.o)
 .debug_loclists
                0x00007a0b       0x56 /opt/wonderful/toolchain/gcc-arm-none-eabi/lib/gcc/arm-none-eabi/13.2.0/../../../../arm-none-eabi/lib/libc.a(libc_tinystdio_filestrget.c.o)
 .debug_loclists
                0x00007a61       0x17 /opt/wonderful/toolchain/gcc-arm-none-eabi/lib/gcc/arm-none-eabi/13.2.0/../../../../arm-none-eabi/lib/libc.a(libc_tinystdio_filestrput.c.o)
 .debug_loclists
                0x00007a78       0xd8 /opt/wonderful/toolchain/gcc-arm-none-eabi/lib/gcc/arm-none-eabi/13.2.0/../../../../arm-none-eabi/lib/libc.a(libc_tinystdio_fseeko.c.o)
 .debug_loclists
                0x00007b50       0x96 /opt/wonderful/toolchain/gcc-arm-none-eabi/lib/gcc/arm-none-eabi/13.2.0/../../../../arm-none-eabi/lib/libc.a(libc_tinystdio_sflags.c.o)
 .debug_loclists
                0x00007be6       0x70 /opt/wonderful/toolchain/gcc-arm-none-eabi/lib/gcc/arm-none-eabi/13.2.0/../../../../arm-none-eabi/lib/libc.a(libc_tinystdio_ungetc.c.o)
 .debug_loclists
                0x00007c56       0x4a /opt/wonderful/toolchain/gcc-arm-none-eabi/lib/gcc/arm-none-eabi/13.2.0/../../../../arm-none-eabi/lib/libc.a(libc_tinystdio_compare_exchange.c.o)
 .debug_loclists
                0x00007ca0      0x12e /opt/wonderful/toolchain/gcc-arm-none-eabi/lib/gcc/arm-none-eabi/13.2.0/thumb/libgcc.a(_muldi3.o)
 .debug_loclists
                0x00007dce      0x29b /opt/wonderful/toolchain/gcc-arm-none-eabi/lib/gcc/arm-none-eabi/13.2.0/thumb/libgcc.a(_udivmoddi4.o)

.debug_rnglists
                0x00000000      0xab8
 .debug_rnglists
                0x00000000       0x30 /opt/wonderful/toolchain/gcc-arm-none-eabi/lib/gcc/arm-none-eabi/13.2.0/../../../../arm-none-eabi/lib/libc.a(malloc-calloc.c.o)
 .debug_rnglists
                0x00000030       0x28 /opt/wonderful/toolchain/gcc-arm-none-eabi/lib/gcc/arm-none-eabi/13.2.0/../../../../arm-none-eabi/lib/libc.a(malloc-free.c.o)
 .debug_rnglists
                0x00000058       0x27 /opt/wonderful/toolchain/gcc-arm-none-eabi/lib/gcc/arm-none-eabi/13.2.0/../../../../arm-none-eabi/lib/libc.a(malloc-malloc.c.o)
 .debug_rnglists
                0x0000007f       0x91 /opt/wonderful/toolchain/gcc-arm-none-eabi/lib/gcc/arm-none-eabi/13.2.0/../../../../arm-none-eabi/lib/libc.a(malloc-realloc.c.o)
 .debug_rnglists
                0x00000110       0x13 /opt/wonderful/toolchain/gcc-arm-none-eabi/lib/gcc/arm-none-eabi/13.2.0/../../../../arm-none-eabi/lib/libc.a(libc_misc_init.c.o)
 .debug_rnglists
                0x00000123       0x3d /opt/wonderful/toolchain/gcc-arm-none-eabi/lib/gcc/arm-none-eabi/13.2.0/../../../../arm-none-eabi/lib/libc.a(libc_misc_lock.c.o)
 .debug_rnglists
                0x00000160       0x13 /opt/wonderful/toolchain/gcc-arm-none-eabi/lib/gcc/arm-none-eabi/13.2.0/../../../../arm-none-eabi/lib/libc.a(libc_stdlib_pico-exit.c.o)
 .debug_rnglists
                0x00000173       0x13 /opt/wonderful/toolchain/gcc-arm-none-eabi/lib/gcc/arm-none-eabi/13.2.0/../../../../arm-none-eabi/lib/libc.a(libc_string_memcmp.c.o)
 .debug_rnglists
                0x00000186       0x13 /opt/wonderful/toolchain/gcc-arm-none-eabi/lib/gcc/arm-none-eabi/13.2.0/../../../../arm-none-eabi/lib/libc.a(libc_string_strchr.c.o)
 .debug_rnglists
                0x00000199       0x13 /opt/wonderful/toolchain/gcc-arm-none-eabi/lib/gcc/arm-none-eabi/13.2.0/../../../../arm-none-eabi/lib/libc.a(libc_string_strdup.c.o)
 .debug_rnglists
                0x000001ac       0x13 /opt/wonderful/toolchain/gcc-arm-none-eabi/lib/gcc/arm-none-eabi/13.2.0/../../../../arm-none-eabi/lib/libc.a(libc_string_strncmp.c.o)
 .debug_rnglists
                0x000001bf       0x13 /opt/wonderful/toolchain/gcc-arm-none-eabi/lib/gcc/arm-none-eabi/13.2.0/../../../../arm-none-eabi/lib/libc.a(libc_string_strstr.c.o)
 .debug_rnglists
                0x000001d2       0x13 /opt/wonderful/toolchain/gcc-arm-none-eabi/lib/gcc/arm-none-eabi/13.2.0/../../../../arm-none-eabi/lib/libc.a(libc_time_lcltime.c.o)
 .debug_rnglists
                0x000001e5       0x2c /opt/wonderful/toolchain/gcc-arm-none-eabi/lib/gcc/arm-none-eabi/13.2.0/../../../../arm-none-eabi/lib/libc.a(libc_time_lcltime_r.c.o)
 .debug_rnglists
                0x00000211       0x13 /opt/wonderful/toolchain/gcc-arm-none-eabi/lib/gcc/arm-none-eabi/13.2.0/../../../../arm-none-eabi/lib/libc.a(libc_time_time.c.o)
 .debug_rnglists
                0x00000224       0x20 /opt/wonderful/toolchain/gcc-arm-none-eabi/lib/gcc/arm-none-eabi/13.2.0/../../../../arm-none-eabi/lib/libc.a(libc_time_tzcalc_limits.c.o)
 .debug_rnglists
                0x00000244       0x1a /opt/wonderful/toolchain/gcc-arm-none-eabi/lib/gcc/arm-none-eabi/13.2.0/../../../../arm-none-eabi/lib/libc.a(libc_time_tzset.c.o)
 .debug_rnglists
                0x0000025e       0x13 /opt/wonderful/toolchain/gcc-arm-none-eabi/lib/gcc/arm-none-eabi/13.2.0/../../../../arm-none-eabi/lib/libc.a(libc_tinystdio_fclose.c.o)
 .debug_rnglists
                0x00000271       0x13 /opt/wonderful/toolchain/gcc-arm-none-eabi/lib/gcc/arm-none-eabi/13.2.0/../../../../arm-none-eabi/lib/libc.a(libc_tinystdio_fflush.c.o)
 .debug_rnglists
                0x00000284       0x13 /opt/wonderful/toolchain/gcc-arm-none-eabi/lib/gcc/arm-none-eabi/13.2.0/../../../../arm-none-eabi/lib/libc.a(libc_tinystdio_fileno.c.o)
 .debug_rnglists
                0x00000297       0x14 /opt/wonderful/toolchain/gcc-arm-none-eabi/lib/gcc/arm-none-eabi/13.2.0/../../../../arm-none-eabi/lib/libc.a(libc_tinystdio_fread.c.o)
 .debug_rnglists
                0x000002ab       0x13 /opt/wonderful/toolchain/gcc-arm-none-eabi/lib/gcc/arm-none-eabi/13.2.0/../../../../arm-none-eabi/lib/libc.a(libc_tinystdio_fseek.c.o)
 .debug_rnglists
                0x000002be       0x13 /opt/wonderful/toolchain/gcc-arm-none-eabi/lib/gcc/arm-none-eabi/13.2.0/../../../../arm-none-eabi/lib/libc.a(libc_tinystdio_ftell.c.o)
 .debug_rnglists
                0x000002d1       0x13 /opt/wonderful/toolchain/gcc-arm-none-eabi/lib/gcc/arm-none-eabi/13.2.0/../../../../arm-none-eabi/lib/libc.a(libc_tinystdio_printf.c.o)
 .debug_rnglists
                0x000002e4       0x13 /opt/wonderful/toolchain/gcc-arm-none-eabi/lib/gcc/arm-none-eabi/13.2.0/../../../../arm-none-eabi/lib/libc.a(libc_tinystdio_puts.c.o)
 .debug_rnglists
                0x000002f7       0x13 /opt/wonderful/toolchain/gcc-arm-none-eabi/lib/gcc/arm-none-eabi/13.2.0/../../../../arm-none-eabi/lib/libc.a(libc_tinystdio_rewind.c.o)
 .debug_rnglists
                0x0000030a       0x13 /opt/wonderful/toolchain/gcc-arm-none-eabi/lib/gcc/arm-none-eabi/13.2.0/../../../../arm-none-eabi/lib/libc.a(libc_tinystdio_setvbuf.c.o)
 .debug_rnglists
                0x0000031d       0x13 /opt/wonderful/toolchain/gcc-arm-none-eabi/lib/gcc/arm-none-eabi/13.2.0/../../../../arm-none-eabi/lib/libc.a(libc_tinystdio_snprintf.c.o)
 .debug_rnglists
                0x00000330       0x13 /opt/wonderful/toolchain/gcc-arm-none-eabi/lib/gcc/arm-none-eabi/13.2.0/../../../../arm-none-eabi/lib/libc.a(libc_tinystdio_sprintf.c.o)
 .debug_rnglists
                0x00000343       0x13 /opt/wonderful/toolchain/gcc-arm-none-eabi/lib/gcc/arm-none-eabi/13.2.0/../../../../arm-none-eabi/lib/libc.a(libc_tinystdio_sscanf.c.o)
 .debug_rnglists
                0x00000356       0x20 /opt/wonderful/toolchain/gcc-arm-none-eabi/lib/gcc/arm-none-eabi/13.2.0/../../../../arm-none-eabi/lib/libc.a(libc_tinystdio_strtoul.c.o)
 .debug_rnglists
                0x00000376       0xe0 /opt/wonderful/toolchain/gcc-arm-none-eabi/lib/gcc/arm-none-eabi/13.2.0/../../../../arm-none-eabi/lib/libc.a(libc_tinystdio_vfprintf.c.o)
 .debug_rnglists
                0x00000456      0x13d /opt/wonderful/toolchain/gcc-arm-none-eabi/lib/gcc/arm-none-eabi/13.2.0/../../../../arm-none-eabi/lib/libc.a(libc_tinystdio_vfscanf.c.o)
 .debug_rnglists
                0x00000593      0x149 /opt/wonderful/toolchain/gcc-arm-none-eabi/lib/gcc/arm-none-eabi/13.2.0/../../../../arm-none-eabi/lib/libc.a(libc_tinystdio_dtoa_ryu.c.o)
 .debug_rnglists
                0x000006dc       0x21 /opt/wonderful/toolchain/gcc-arm-none-eabi/lib/gcc/arm-none-eabi/13.2.0/../../../../arm-none-eabi/lib/libc.a(libc_tinystdio_ryu_table.c.o)
 .debug_rnglists
                0x000006fd       0x69 /opt/wonderful/toolchain/gcc-arm-none-eabi/lib/gcc/arm-none-eabi/13.2.0/../../../../arm-none-eabi/lib/libc.a(libc_tinystdio_atod_ryu.c.o)
 .debug_rnglists
                0x00000766       0x60 /opt/wonderful/toolchain/gcc-arm-none-eabi/lib/gcc/arm-none-eabi/13.2.0/../../../../arm-none-eabi/lib/libc.a(libc_tinystdio_atof_ryu.c.o)
 .debug_rnglists
                0x000007c6       0x25 /opt/wonderful/toolchain/gcc-arm-none-eabi/lib/gcc/arm-none-eabi/13.2.0/../../../../arm-none-eabi/lib/libc.a(libc_tinystdio_ryu_log2pow5.c.o)
 .debug_rnglists
                0x000007eb       0x19 /opt/wonderful/toolchain/gcc-arm-none-eabi/lib/gcc/arm-none-eabi/13.2.0/../../../../arm-none-eabi/lib/libc.a(libc_tinystdio_ryu_log10.c.o)
 .debug_rnglists
                0x00000804       0x13 /opt/wonderful/toolchain/gcc-arm-none-eabi/lib/gcc/arm-none-eabi/13.2.0/../../../../arm-none-eabi/lib/libc.a(libc_tinystdio_ryu_pow5bits.c.o)
 .debug_rnglists
                0x00000817       0x19 /opt/wonderful/toolchain/gcc-arm-none-eabi/lib/gcc/arm-none-eabi/13.2.0/../../../../arm-none-eabi/lib/libc.a(libc_tinystdio_ryu_umul128.c.o)
 .debug_rnglists
                0x00000830       0x1f /opt/wonderful/toolchain/gcc-arm-none-eabi/lib/gcc/arm-none-eabi/13.2.0/../../../../arm-none-eabi/lib/libc.a(libc_tinystdio_ryu_divpow2.c.o)
 .debug_rnglists
                0x0000084f       0x1f /opt/wonderful/toolchain/gcc-arm-none-eabi/lib/gcc/arm-none-eabi/13.2.0/../../../../arm-none-eabi/lib/libc.a(libc_tinystdio_exchange.c.o)
 .debug_rnglists
                0x0000086e       0x13 /opt/wonderful/toolchain/gcc-arm-none-eabi/lib/gcc/arm-none-eabi/13.2.0/../../../../arm-none-eabi/lib/libc.a(libc_tinystdio_fopen.c.o)
 .debug_rnglists
                0x00000881       0x14 /opt/wonderful/toolchain/gcc-arm-none-eabi/lib/gcc/arm-none-eabi/13.2.0/../../../../arm-none-eabi/lib/libc.a(libc_tinystdio_fdopen.c.o)
 .debug_rnglists
                0x00000895       0x13 /opt/wonderful/toolchain/gcc-arm-none-eabi/lib/gcc/arm-none-eabi/13.2.0/../../../../arm-none-eabi/lib/libc.a(memmove.c.o)
 .debug_rnglists
                0x000008a8       0x13 /opt/wonderful/toolchain/gcc-arm-none-eabi/lib/gcc/arm-none-eabi/13.2.0/../../../../arm-none-eabi/lib/libc.a(libc_misc_fini.c.o)
 .debug_rnglists
                0x000008bb       0x13 /opt/wonderful/toolchain/gcc-arm-none-eabi/lib/gcc/arm-none-eabi/13.2.0/../../../../arm-none-eabi/lib/libc.a(libc_stdlib_getenv.c.o)
 .debug_rnglists
                0x000008ce       0x14 /opt/wonderful/toolchain/gcc-arm-none-eabi/lib/gcc/arm-none-eabi/13.2.0/../../../../arm-none-eabi/lib/libc.a(libc_stdlib_getenv_r.c.o)
 .debug_rnglists
                0x000008e2       0x13 /opt/wonderful/toolchain/gcc-arm-none-eabi/lib/gcc/arm-none-eabi/13.2.0/../../../../arm-none-eabi/lib/libc.a(libc_string_strnlen.c.o)
 .debug_rnglists
                0x000008f5       0x13 /opt/wonderful/toolchain/gcc-arm-none-eabi/lib/gcc/arm-none-eabi/13.2.0/../../../../arm-none-eabi/lib/libc.a(libc_time_gettzinfo.c.o)
 .debug_rnglists
                0x00000908       0x20 /opt/wonderful/toolchain/gcc-arm-none-eabi/lib/gcc/arm-none-eabi/13.2.0/../../../../arm-none-eabi/lib/libc.a(libc_time_gmtime_r.c.o)
 .debug_rnglists
                0x00000928       0xaf /opt/wonderful/toolchain/gcc-arm-none-eabi/lib/gcc/arm-none-eabi/13.2.0/../../../../arm-none-eabi/lib/libc.a(libc_tinystdio_bufio.c.o)
 .debug_rnglists
                0x000009d7       0x2e /opt/wonderful/toolchain/gcc-arm-none-eabi/lib/gcc/arm-none-eabi/13.2.0/../../../../arm-none-eabi/lib/libc.a(libc_tinystdio_dtox_engine.c.o)
 .debug_rnglists
                0x00000a05       0x13 /opt/wonderful/toolchain/gcc-arm-none-eabi/lib/gcc/arm-none-eabi/13.2.0/../../../../arm-none-eabi/lib/libc.a(libc_tinystdio_fgetc.c.o)
 .debug_rnglists
                0x00000a18       0x13 /opt/wonderful/toolchain/gcc-arm-none-eabi/lib/gcc/arm-none-eabi/13.2.0/../../../../arm-none-eabi/lib/libc.a(libc_tinystdio_filestrget.c.o)
 .debug_rnglists
                0x00000a2b       0x13 /opt/wonderful/toolchain/gcc-arm-none-eabi/lib/gcc/arm-none-eabi/13.2.0/../../../../arm-none-eabi/lib/libc.a(libc_tinystdio_filestrput.c.o)
 .debug_rnglists
                0x00000a3e       0x13 /opt/wonderful/toolchain/gcc-arm-none-eabi/lib/gcc/arm-none-eabi/13.2.0/../../../../arm-none-eabi/lib/libc.a(libc_tinystdio_fseeko.c.o)
 .debug_rnglists
                0x00000a51       0x13 /opt/wonderful/toolchain/gcc-arm-none-eabi/lib/gcc/arm-none-eabi/13.2.0/../../../../arm-none-eabi/lib/libc.a(libc_tinystdio_sflags.c.o)
 .debug_rnglists
                0x00000a64       0x13 /opt/wonderful/toolchain/gcc-arm-none-eabi/lib/gcc/arm-none-eabi/13.2.0/../../../../arm-none-eabi/lib/libc.a(libc_tinystdio_ungetc.c.o)
 .debug_rnglists
                0x00000a77       0x22 /opt/wonderful/toolchain/gcc-arm-none-eabi/lib/gcc/arm-none-eabi/13.2.0/../../../../arm-none-eabi/lib/libc.a(libc_tinystdio_compare_exchange.c.o)
 .debug_rnglists
                0x00000a99       0x1f /opt/wonderful/toolchain/gcc-arm-none-eabi/lib/gcc/arm-none-eabi/13.2.0/thumb/libgcc.a(_muldi3.o)
